(iboard
board
p0
(dp1
S'squares'
p2
(dp3
(I97
I2
tp4
(isquare
square
p5
(dp6
S'neighbors'
p7
(dp8
S'right'
p9
(I98
I2
tp10
sS'top'
p11
(I97
I3
tp12
sS'btm-right'
p13
(I98
I1
tp14
sS'btm'
p15
(I97
I1
tp16
sS'top-right'
p17
(I98
I3
tp18
sS'left'
p19
NsS'top-left'
p20
NsS'btm-left'
p21
NssS'contentColor'
p22
S'W'
p23
sS'blackAttackingMe'
p24
(lp25
sS'whiteAttackingMe'
p26
(lp27
(I97
I1
tp28
asS'pos'
p29
g4
sS'content'
p30
S'Pawn'
p31
sbs(I102
I7
tp32
(isquare
square
p33
(dp34
g7
(dp35
g9
(I103
I7
tp36
sg11
(I102
I8
tp37
sg13
(I103
I6
tp38
sg15
(I102
I6
tp39
sg17
(I103
I8
tp40
sg19
(I101
I7
tp41
sg20
(I101
I8
tp42
sg21
(I101
I6
tp43
ssg22
S'_'
p44
sg24
(lp45
(I101
I8
tp46
asg26
(lp47
sg29
g32
sg30
g44
sbs(I99
I3
tp48
(isquare
square
p49
(dp50
g7
(dp51
g9
(I100
I3
tp52
sg11
(I99
I4
tp53
sg13
(I100
I2
tp54
sg15
(I99
I2
tp55
sg17
(I100
I4
tp56
sg19
(I98
I3
tp57
sg20
(I98
I4
tp58
sg21
(I98
I2
tp59
ssg22
g44
sg24
(lp60
sg26
(lp61
(I98
I2
tp62
a(I100
I2
tp63
a(I98
I1
tp64
asg29
g48
sg30
g44
sbs(I104
I1
tp65
(isquare
square
p66
(dp67
g7
(dp68
g13
Nsg11
(I104
I2
tp69
sg9
Nsg15
Nsg21
Nsg20
(I103
I2
tp70
sg19
(I103
I1
tp71
ssg22
g23
sg24
(lp72
sg26
(lp73
sg29
g65
sg30
S'Rook'
p74
sbs(I104
I5
tp75
(isquare
square
p76
(dp77
g7
(dp78
g9
Nsg11
(I104
I6
tp79
sg13
Nsg15
(I104
I4
tp80
sg17
Nsg21
(I103
I4
tp81
sg20
(I103
I6
tp82
sg19
(I103
I5
tp83
ssg22
g44
sg24
(lp84
sg26
(lp85
(I100
I1
tp86
asg29
g75
sg30
g44
sbs(I103
I6
tp87
(isquare
square
p88
(dp89
g7
(dp90
g9
(I104
I6
tp91
sg11
(I103
I7
tp92
sg13
(I104
I5
tp93
sg15
(I103
I5
tp94
sg17
(I104
I7
tp95
sg19
(I102
I6
tp96
sg20
(I102
I7
tp97
sg21
(I102
I5
tp98
ssg22
g44
sg24
(lp99
sg26
(lp100
sg29
g87
sg30
g44
sbs(I100
I4
tp101
(isquare
square
p102
(dp103
g7
(dp104
g9
(I101
I4
tp105
sg11
(I100
I5
tp106
sg13
(I101
I3
tp107
sg15
(I100
I3
tp108
sg17
(I101
I5
tp109
sg19
(I99
I4
tp110
sg20
(I99
I5
tp111
sg21
(I99
I3
tp112
ssg22
g44
sg24
(lp113
sg26
(lp114
sg29
g101
sg30
g44
sbs(I102
I3
tp115
(isquare
square
p116
(dp117
g7
(dp118
g9
(I103
I3
tp119
sg11
(I102
I4
tp120
sg13
(I103
I2
tp121
sg15
(I102
I2
tp122
sg17
(I103
I4
tp123
sg19
(I101
I3
tp124
sg20
(I101
I4
tp125
sg21
(I101
I2
tp126
ssg22
g44
sg24
(lp127
sg26
(lp128
g86
a(I103
I1
tp129
a(I103
I2
tp130
asg29
g115
sg30
g44
sbs(I97
I5
tp131
(isquare
square
p132
(dp133
g7
(dp134
g9
(I98
I5
tp135
sg11
(I97
I6
tp136
sg13
(I98
I4
tp137
sg15
(I97
I4
tp138
sg17
(I98
I6
tp139
sg19
Nsg20
Nsg21
Nssg22
g44
sg24
(lp140
sg26
(lp141
sg29
g131
sg30
g44
sbs(I99
I6
tp142
(isquare
square
p143
(dp144
g7
(dp145
g9
(I100
I6
tp146
sg11
(I99
I7
tp147
sg13
(I100
I5
tp148
sg15
(I99
I5
tp149
sg17
(I100
I7
tp150
sg19
(I98
I6
tp151
sg20
(I98
I7
tp152
sg21
(I98
I5
tp153
ssg22
g44
sg24
(lp154
(I98
I7
tp155
a(I100
I7
tp156
a(I98
I8
tp157
asg26
(lp158
sg29
g142
sg30
g44
sbs(I98
I2
tp159
(isquare
square
p160
(dp161
g7
(dp162
g9
(I99
I2
tp163
sg11
(I98
I3
tp164
sg13
(I99
I1
tp165
sg15
(I98
I1
tp166
sg17
(I99
I3
tp167
sg19
(I97
I2
tp168
sg20
(I97
I3
tp169
sg21
(I97
I1
tp170
ssg22
g23
sg24
(lp171
sg26
(lp172
(I99
I1
tp173
asg29
g159
sg30
g31
sbs(I104
I6
tp174
(isquare
square
p175
(dp176
g7
(dp177
g9
Nsg11
(I104
I7
tp178
sg13
Nsg15
(I104
I5
tp179
sg17
Nsg21
(I103
I5
tp180
sg20
(I103
I7
tp181
sg19
(I103
I6
tp182
ssg22
g44
sg24
(lp183
(I103
I8
tp184
asg26
(lp185
sg29
g174
sg30
g44
sbs(I100
I1
tp186
(isquare
square
p187
(dp188
g7
(dp189
g13
Nsg11
(I100
I2
tp190
sg9
(I101
I1
tp191
sg15
Nsg17
(I101
I2
tp192
sg21
Nsg20
(I99
I2
tp193
sg19
(I99
I1
tp194
ssg22
g23
sg24
(lp195
sg26
(lp196
(I101
I1
tp197
asg29
g186
sg30
S'Queen'
p198
sbs(I97
I1
tp199
(isquare
square
p200
(dp201
g7
(dp202
g13
Nsg11
(I97
I2
tp203
sg9
(I98
I1
tp204
sg15
Nsg17
(I98
I2
tp205
sg21
Nsg20
Nsg19
Nssg22
g23
sg24
(lp206
sg26
(lp207
sg29
g199
sg30
g74
sbs(I101
I5
tp208
(isquare
square
p209
(dp210
g7
(dp211
g9
(I102
I5
tp212
sg11
(I101
I6
tp213
sg13
(I102
I4
tp214
sg15
(I101
I4
tp215
sg17
(I102
I6
tp216
sg19
(I100
I5
tp217
sg20
(I100
I6
tp218
sg21
(I100
I4
tp219
ssg22
g44
sg24
(lp220
sg26
(lp221
sg29
g208
sg30
g44
sbs(I102
I4
tp222
(isquare
square
p223
(dp224
g7
(dp225
g9
(I103
I4
tp226
sg11
(I102
I5
tp227
sg13
(I103
I3
tp228
sg15
(I102
I3
tp229
sg17
(I103
I5
tp230
sg19
(I101
I4
tp231
sg20
(I101
I5
tp232
sg21
(I101
I3
tp233
ssg22
g44
sg24
(lp234
sg26
(lp235
sg29
g222
sg30
g44
sbs(I99
I2
tp236
(isquare
square
p237
(dp238
g7
(dp239
g9
(I100
I2
tp240
sg11
(I99
I3
tp241
sg13
(I100
I1
tp242
sg15
(I99
I1
tp243
sg17
(I100
I3
tp244
sg19
(I98
I2
tp245
sg20
(I98
I3
tp246
sg21
(I98
I1
tp247
ssg22
g23
sg24
(lp248
sg26
(lp249
g86
asg29
g236
sg30
g31
sbs(I98
I6
tp250
(isquare
square
p251
(dp252
g7
(dp253
g9
(I99
I6
tp254
sg11
(I98
I7
tp255
sg13
(I99
I5
tp256
sg15
(I98
I5
tp257
sg17
(I99
I7
tp258
sg19
(I97
I6
tp259
sg20
(I97
I7
tp260
sg21
(I97
I5
tp261
ssg22
g44
sg24
(lp262
(I97
I7
tp263
a(I99
I7
tp264
asg26
(lp265
sg29
g250
sg30
g44
sbs(I104
I2
tp266
(isquare
square
p267
(dp268
g7
(dp269
g9
Nsg11
(I104
I3
tp270
sg13
Nsg15
(I104
I1
tp271
sg17
Nsg21
(I103
I1
tp272
sg20
(I103
I3
tp273
sg19
(I103
I2
tp274
ssg22
g23
sg24
(lp275
sg26
(lp276
(I104
I1
tp277
asg29
g266
sg30
g31
sbs(I103
I5
tp278
(isquare
square
p279
(dp280
g7
(dp281
g9
(I104
I5
tp282
sg11
(I103
I6
tp283
sg13
(I104
I4
tp284
sg15
(I103
I4
tp285
sg17
(I104
I6
tp286
sg19
(I102
I5
tp287
sg20
(I102
I6
tp288
sg21
(I102
I4
tp289
ssg22
g44
sg24
(lp290
(I101
I7
tp291
asg26
(lp292
sg29
g278
sg30
g44
sbs(I103
I1
tp293
(isquare
square
p294
(dp295
g7
(dp296
g13
Nsg11
(I103
I2
tp297
sg9
(I104
I1
tp298
sg15
Nsg17
(I104
I2
tp299
sg21
Nsg20
(I102
I2
tp300
sg19
(I102
I1
tp301
ssg22
g23
sg24
(lp302
sg26
(lp303
g277
asg29
g293
sg30
S'Knight'
p304
sbs(I100
I5
tp305
(isquare
square
p306
(dp307
g7
(dp308
g9
(I101
I5
tp309
sg11
(I100
I6
tp310
sg13
(I101
I4
tp311
sg15
(I100
I4
tp312
sg17
(I101
I6
tp313
sg19
(I99
I5
tp314
sg20
(I99
I6
tp315
sg21
(I99
I4
tp316
ssg22
g44
sg24
(lp317
(I101
I6
tp318
asg26
(lp319
sg29
g305
sg30
g44
sbs(I101
I2
tp320
(isquare
square
p321
(dp322
g7
(dp323
g9
(I102
I2
tp324
sg11
(I101
I3
tp325
sg13
(I102
I1
tp326
sg15
(I101
I1
tp327
sg17
(I102
I3
tp328
sg19
(I100
I2
tp329
sg20
(I100
I3
tp330
sg21
(I100
I1
tp331
ssg22
g44
sg24
(lp332
sg26
(lp333
g86
ag129
ag197
a(I102
I1
tp334
asg29
g320
sg30
g44
sbs(I97
I4
tp335
(isquare
square
p336
(dp337
g7
(dp338
g9
(I98
I4
tp339
sg11
(I97
I5
tp340
sg13
(I98
I3
tp341
sg15
(I97
I3
tp342
sg17
(I98
I5
tp343
sg19
Nsg20
Nsg21
Nssg22
g44
sg24
(lp344
sg26
(lp345
sg29
g335
sg30
g44
sbs(I102
I2
tp346
(isquare
square
p347
(dp348
g7
(dp349
g9
(I103
I2
tp350
sg11
(I102
I3
tp351
sg13
(I103
I1
tp352
sg15
(I102
I1
tp353
sg17
(I103
I3
tp354
sg19
(I101
I2
tp355
sg20
(I101
I3
tp356
sg21
(I101
I1
tp357
ssg22
g23
sg24
(lp358
sg26
(lp359
g197
asg29
g346
sg30
g31
sbs(I98
I3
tp360
(isquare
square
p361
(dp362
g7
(dp363
g9
(I99
I3
tp364
sg11
(I98
I4
tp365
sg13
(I99
I2
tp366
sg15
(I98
I2
tp367
sg17
(I99
I4
tp368
sg19
(I97
I3
tp369
sg20
(I97
I4
tp370
sg21
(I97
I2
tp371
ssg22
g44
sg24
(lp372
sg26
(lp373
(I97
I2
tp374
a(I99
I2
tp375
asg29
g360
sg30
g44
sbs(I104
I7
tp376
(isquare
square
p377
(dp378
g7
(dp379
g9
Nsg11
(I104
I8
tp380
sg13
Nsg15
(I104
I6
tp381
sg17
Nsg21
(I103
I6
tp382
sg20
(I103
I8
tp383
sg19
(I103
I7
tp384
ssg22
g23
sg24
(lp385
(I104
I8
tp386
asg26
(lp387
sg29
g376
sg30
g31
sbs(I100
I2
tp388
(isquare
square
p389
(dp390
g7
(dp391
g9
(I101
I2
tp392
sg11
(I100
I3
tp393
sg13
(I101
I1
tp394
sg15
(I100
I1
tp395
sg17
(I101
I3
tp396
sg19
(I99
I2
tp397
sg20
(I99
I3
tp398
sg21
(I99
I1
tp399
ssg22
g23
sg24
(lp400
sg26
(lp401
g86
ag197
ag173
ag64
asg29
g388
sg30
g31
sbs(I102
I5
tp402
(isquare
square
p403
(dp404
g7
(dp405
g9
(I103
I5
tp406
sg11
(I102
I6
tp407
sg13
(I103
I4
tp408
sg15
(I102
I4
tp409
sg17
(I103
I6
tp410
sg19
(I101
I5
tp411
sg20
(I101
I6
tp412
sg21
(I101
I4
tp413
ssg22
g44
sg24
(lp414
g318
asg26
(lp415
sg29
g402
sg30
g44
sbs(I99
I5
tp416
(isquare
square
p417
(dp418
g7
(dp419
g9
(I100
I5
tp420
sg11
(I99
I6
tp421
sg13
(I100
I4
tp422
sg15
(I99
I4
tp423
sg17
(I100
I6
tp424
sg19
(I98
I5
tp425
sg20
(I98
I6
tp426
sg21
(I98
I4
tp427
ssg22
g44
sg24
(lp428
g291
asg26
(lp429
sg29
g416
sg30
g44
sbs(I98
I7
tp430
(isquare
square
p431
(dp432
g7
(dp433
g9
(I99
I7
tp434
sg11
(I98
I8
tp435
sg13
(I99
I6
tp436
sg15
(I98
I6
tp437
sg17
(I99
I8
tp438
sg19
(I97
I7
tp439
sg20
(I97
I8
tp440
sg21
(I97
I6
tp441
ssg22
S'B'
p442
sg24
(lp443
(I99
I8
tp444
asg26
(lp445
sg29
g430
sg30
g31
sbs(I104
I3
tp446
(isquare
square
p447
(dp448
g7
(dp449
g9
Nsg11
(I104
I4
tp450
sg13
Nsg15
(I104
I2
tp451
sg17
Nsg21
(I103
I2
tp452
sg20
(I103
I4
tp453
sg19
(I103
I3
tp454
ssg22
g44
sg24
(lp455
sg26
(lp456
g129
ag130
asg29
g446
sg30
g44
sbs(I101
I7
tp457
(isquare
square
p458
(dp459
g7
(dp460
g9
(I102
I7
tp461
sg11
(I101
I8
tp462
sg13
(I102
I6
tp463
sg15
(I101
I6
tp464
sg17
(I102
I8
tp465
sg19
(I100
I7
tp466
sg20
(I100
I8
tp467
sg21
(I100
I6
tp468
ssg22
g442
sg24
(lp469
g184
a(I100
I8
tp470
ag46
asg26
(lp471
sg29
g457
sg30
S'Bishop'
p472
sbs(I100
I6
tp473
(isquare
square
p474
(dp475
g7
(dp476
g9
(I101
I6
tp477
sg11
(I100
I7
tp478
sg13
(I101
I5
tp479
sg15
(I100
I5
tp480
sg17
(I101
I7
tp481
sg19
(I99
I6
tp482
sg20
(I99
I7
tp483
sg21
(I99
I5
tp484
ssg22
g44
sg24
(lp485
g291
ag264
asg26
(lp486
sg29
g473
sg30
g44
sbs(I102
I1
tp487
(isquare
square
p488
(dp489
g7
(dp490
g13
Nsg11
(I102
I2
tp491
sg9
(I103
I1
tp492
sg15
Nsg17
(I103
I2
tp493
sg21
Nsg20
(I101
I2
tp494
sg19
(I101
I1
tp495
ssg22
g23
sg24
(lp496
sg26
(lp497
g86
ag197
asg29
g487
sg30
g472
sbs(I99
I1
tp498
(isquare
square
p499
(dp500
g7
(dp501
g13
Nsg11
(I99
I2
tp502
sg9
(I100
I1
tp503
sg15
Nsg17
(I100
I2
tp504
sg21
Nsg20
(I98
I2
tp505
sg19
(I98
I1
tp506
ssg22
g23
sg24
(lp507
sg26
(lp508
g86
asg29
g498
sg30
g472
sbs(I101
I4
tp509
(isquare
square
p510
(dp511
g7
(dp512
g9
(I102
I4
tp513
sg11
(I101
I5
tp514
sg13
(I102
I3
tp515
sg15
(I101
I3
tp516
sg17
(I102
I5
tp517
sg19
(I100
I4
tp518
sg20
(I100
I5
tp519
sg21
(I100
I3
tp520
ssg22
g44
sg24
(lp521
sg26
(lp522
sg29
g509
sg30
g44
sbs(I99
I8
tp523
(isquare
square
p524
(dp525
g7
(dp526
g9
(I100
I8
tp527
sg11
Nsg13
(I100
I7
tp528
sg15
(I99
I7
tp529
sg17
Nsg21
(I98
I7
tp530
sg20
Nsg19
(I98
I8
tp531
ssg22
g442
sg24
(lp532
g470
asg26
(lp533
sg29
g523
sg30
g472
sbs(I97
I8
tp534
(isquare
square
p535
(dp536
g7
(dp537
g9
(I98
I8
tp538
sg11
Nsg13
(I98
I7
tp539
sg15
(I97
I7
tp540
sg17
Nsg19
Nsg20
Nsg21
Nssg22
g442
sg24
(lp541
sg26
(lp542
sg29
g534
sg30
g74
sbs(I104
I8
tp543
(isquare
square
p544
(dp545
g7
(dp546
g9
Nsg11
Nsg13
Nsg15
(I104
I7
tp547
sg17
Nsg21
(I103
I7
tp548
sg20
Nsg19
(I103
I8
tp549
ssg22
g442
sg24
(lp550
sg26
(lp551
sg29
g543
sg30
g74
sbs(I100
I3
tp552
(isquare
square
p553
(dp554
g7
(dp555
g9
(I101
I3
tp556
sg11
(I100
I4
tp557
sg13
(I101
I2
tp558
sg15
(I100
I2
tp559
sg17
(I101
I4
tp560
sg19
(I99
I3
tp561
sg20
(I99
I4
tp562
sg21
(I99
I2
tp563
ssg22
g44
sg24
(lp564
sg26
(lp565
g375
ag334
asg29
g552
sg30
g44
sbs(I97
I7
tp566
(isquare
square
p567
(dp568
g7
(dp569
g9
(I98
I7
tp570
sg11
(I97
I8
tp571
sg13
(I98
I6
tp572
sg15
(I97
I6
tp573
sg17
(I98
I8
tp574
sg19
Nsg20
Nsg21
Nssg22
g442
sg24
(lp575
(I97
I8
tp576
asg26
(lp577
sg29
g566
sg30
g31
sbs(I99
I4
tp578
(isquare
square
p579
(dp580
g7
(dp581
g9
(I100
I4
tp582
sg11
(I99
I5
tp583
sg13
(I100
I3
tp584
sg15
(I99
I3
tp585
sg17
(I100
I5
tp586
sg19
(I98
I4
tp587
sg20
(I98
I5
tp588
sg21
(I98
I3
tp589
ssg22
g44
sg24
(lp590
sg26
(lp591
g334
asg29
g578
sg30
g44
sbs(I98
I4
tp592
(isquare
square
p593
(dp594
g7
(dp595
g9
(I99
I4
tp596
sg11
(I98
I5
tp597
sg13
(I99
I3
tp598
sg15
(I98
I3
tp599
sg17
(I99
I5
tp600
sg19
(I97
I4
tp601
sg20
(I97
I5
tp602
sg21
(I97
I3
tp603
ssg22
g44
sg24
(lp604
g291
asg26
(lp605
sg29
g592
sg30
g44
sbs(I104
I4
tp606
(isquare
square
p607
(dp608
g7
(dp609
g9
Nsg11
(I104
I5
tp610
sg13
Nsg15
(I104
I3
tp611
sg17
Nsg21
(I103
I3
tp612
sg20
(I103
I5
tp613
sg19
(I103
I4
tp614
ssg22
g44
sg24
(lp615
g291
asg26
(lp616
sg29
g606
sg30
g44
sbs(I103
I3
tp617
(isquare
square
p618
(dp619
g7
(dp620
g9
(I104
I3
tp621
sg11
(I103
I4
tp622
sg13
(I104
I2
tp623
sg15
(I103
I2
tp624
sg17
(I104
I4
tp625
sg19
(I102
I3
tp626
sg20
(I102
I4
tp627
sg21
(I102
I2
tp628
ssg22
g44
sg24
(lp629
sg26
(lp630
(I104
I2
tp631
a(I102
I2
tp632
asg29
g617
sg30
g44
sbs(I100
I7
tp633
(isquare
square
p634
(dp635
g7
(dp636
g9
(I101
I7
tp637
sg11
(I100
I8
tp638
sg13
(I101
I6
tp639
sg15
(I100
I6
tp640
sg17
(I101
I8
tp641
sg19
(I99
I7
tp642
sg20
(I99
I8
tp643
sg21
(I99
I6
tp644
ssg22
g442
sg24
(lp645
g444
ag470
ag157
ag46
asg26
(lp646
sg29
g633
sg30
g31
sbs(I97
I3
tp647
(isquare
square
p648
(dp649
g7
(dp650
g9
(I98
I3
tp651
sg11
(I97
I4
tp652
sg13
(I98
I2
tp653
sg15
(I97
I2
tp654
sg17
(I98
I4
tp655
sg19
Nsg20
Nsg21
Nssg22
g44
sg24
(lp656
g291
asg26
(lp657
g62
ag64
asg29
g647
sg30
g44
sbs(I100
I8
tp658
(isquare
square
p659
(dp660
g7
(dp661
g9
(I101
I8
tp662
sg11
Nsg13
(I101
I7
tp663
sg15
(I100
I7
tp664
sg17
Nsg21
(I99
I7
tp665
sg20
Nsg19
(I99
I8
tp666
ssg22
g442
sg24
(lp667
g291
ag46
asg26
(lp668
sg29
g658
sg30
g198
sbs(I101
I6
tp669
(isquare
square
p670
(dp671
g7
(dp672
g9
(I102
I6
tp673
sg11
(I101
I7
tp674
sg13
(I102
I5
tp675
sg15
(I101
I5
tp676
sg17
(I102
I7
tp677
sg19
(I100
I6
tp678
sg20
(I100
I7
tp679
sg21
(I100
I5
tp680
ssg22
g442
sg24
(lp681
g156
asg26
(lp682
sg29
g669
sg30
g31
sbs(I98
I8
tp683
(isquare
square
p684
(dp685
g7
(dp686
g9
(I99
I8
tp687
sg11
Nsg13
(I99
I7
tp688
sg15
(I98
I7
tp689
sg17
Nsg21
(I97
I7
tp690
sg20
Nsg19
(I97
I8
tp691
ssg22
g442
sg24
(lp692
g576
asg26
(lp693
sg29
g683
sg30
g304
sbs(I102
I8
tp694
(isquare
square
p695
(dp696
g7
(dp697
g9
(I103
I8
tp698
sg11
Nsg13
(I103
I7
tp699
sg15
(I102
I7
tp700
sg17
Nsg21
(I101
I7
tp701
sg20
Nsg19
(I101
I8
tp702
ssg22
g44
sg24
(lp703
g291
ag470
ag46
asg26
(lp704
sg29
g694
sg30
g44
sbs(I102
I6
tp705
(isquare
square
p706
(dp707
g7
(dp708
g9
(I103
I6
tp709
sg11
(I102
I7
tp710
sg13
(I103
I5
tp711
sg15
(I102
I5
tp712
sg17
(I103
I7
tp713
sg19
(I101
I6
tp714
sg20
(I101
I7
tp715
sg21
(I101
I5
tp716
ssg22
g44
sg24
(lp717
g184
ag291
asg26
(lp718
sg29
g705
sg30
g44
sbs(I103
I7
tp719
(isquare
square
p720
(dp721
g7
(dp722
g9
(I104
I7
tp723
sg11
(I103
I8
tp724
sg13
(I104
I6
tp725
sg15
(I103
I6
tp726
sg17
(I104
I8
tp727
sg19
(I102
I7
tp728
sg20
(I102
I8
tp729
sg21
(I102
I6
tp730
ssg22
g44
sg24
(lp731
sg26
(lp732
sg29
g719
sg30
g44
sbs(I98
I1
tp733
(isquare
square
p734
(dp735
g7
(dp736
g13
Nsg11
(I98
I2
tp737
sg9
(I99
I1
tp738
sg15
Nsg17
(I99
I2
tp739
sg21
Nsg20
(I97
I2
tp740
sg19
(I97
I1
tp741
ssg22
g23
sg24
(lp742
sg26
(lp743
g28
asg29
g733
sg30
g304
sbs(I101
I1
tp744
(isquare
square
p745
(dp746
g7
(dp747
g13
Nsg11
(I101
I2
tp748
sg9
(I102
I1
tp749
sg15
Nsg17
(I102
I2
tp750
sg21
Nsg20
(I100
I2
tp751
sg19
(I100
I1
tp752
ssg22
g23
sg24
(lp753
sg26
(lp754
g86
asg29
g744
sg30
S'King'
p755
sbs(I97
I6
tp756
(isquare
square
p757
(dp758
g7
(dp759
g9
(I98
I6
tp760
sg11
(I97
I7
tp761
sg13
(I98
I5
tp762
sg15
(I97
I5
tp763
sg17
(I98
I7
tp764
sg19
Nsg20
Nsg21
Nssg22
g44
sg24
(lp765
g155
ag157
asg26
(lp766
g334
asg29
g756
sg30
g44
sbs(I103
I2
tp767
(isquare
square
p768
(dp769
g7
(dp770
g9
(I104
I2
tp771
sg11
(I103
I3
tp772
sg13
(I104
I1
tp773
sg15
(I103
I1
tp774
sg17
(I104
I3
tp775
sg19
(I102
I2
tp776
sg20
(I102
I3
tp777
sg21
(I102
I1
tp778
ssg22
g23
sg24
(lp779
sg26
(lp780
g334
asg29
g767
sg30
g31
sbs(I99
I7
tp781
(isquare
square
p782
(dp783
g7
(dp784
g9
(I100
I7
tp785
sg11
(I99
I8
tp786
sg13
(I100
I6
tp787
sg15
(I99
I6
tp788
sg17
(I100
I8
tp789
sg19
(I98
I7
tp790
sg20
(I98
I8
tp791
sg21
(I98
I6
tp792
ssg22
g442
sg24
(lp793
g470
asg26
(lp794
sg29
g781
sg30
g31
sbs(I98
I5
tp795
(isquare
square
p796
(dp797
g7
(dp798
g9
(I99
I5
tp799
sg11
(I98
I6
tp800
sg13
(I99
I4
tp801
sg15
(I98
I4
tp802
sg17
(I99
I6
tp803
sg19
(I97
I5
tp804
sg20
(I97
I6
tp805
sg21
(I97
I4
tp806
ssg22
g44
sg24
(lp807
sg26
(lp808
g334
asg29
g795
sg30
g44
sbs(I101
I3
tp809
(isquare
square
p810
(dp811
g7
(dp812
g9
(I102
I3
tp813
sg11
(I101
I4
tp814
sg13
(I102
I2
tp815
sg15
(I101
I2
tp816
sg17
(I102
I4
tp817
sg19
(I100
I3
tp818
sg20
(I100
I4
tp819
sg21
(I100
I2
tp820
ssg22
g44
sg24
(lp821
sg26
(lp822
g63
ag632
asg29
g809
sg30
g44
sbs(I103
I8
tp823
(isquare
square
p824
(dp825
g7
(dp826
g9
(I104
I8
tp827
sg11
Nsg13
(I104
I7
tp828
sg15
(I103
I7
tp829
sg17
Nsg21
(I102
I7
tp830
sg20
Nsg19
(I102
I8
tp831
ssg22
g442
sg24
(lp832
g386
ag470
asg26
(lp833
(I104
I7
tp834
asg29
g823
sg30
g304
sbs(I101
I8
tp835
(isquare
square
p836
(dp837
g7
(dp838
g9
(I102
I8
tp839
sg11
Nsg13
(I102
I7
tp840
sg15
(I101
I7
tp841
sg17
Nsg21
(I100
I7
tp842
sg20
Nsg19
(I100
I8
tp843
ssg22
g442
sg24
(lp844
g470
asg26
(lp845
sg29
g835
sg30
g755
sbs(I103
I4
tp846
(isquare
square
p847
(dp848
g7
(dp849
g9
(I104
I4
tp850
sg11
(I103
I5
tp851
sg13
(I104
I3
tp852
sg15
(I103
I3
tp853
sg17
(I104
I5
tp854
sg19
(I102
I4
tp855
sg20
(I102
I5
tp856
sg21
(I102
I3
tp857
ssg22
g44
sg24
(lp858
sg26
(lp859
g86
asg29
g846
sg30
g44
sbssS'temp'
p860
NsS'kings'
p861
(dp862
g442
(I101
I8
tp863
sg23
(I101
I1
tp864
ssS'turnCount'
p865
I8
sS'whitesTurn'
p866
I01
sS'moves'
p867
(lp868
(imove
move
p869
(dp870
S'start'
p871
(I101
I2
tp872
sS'end'
p873
(I101
I4
tp874
sS'type'
p875
S'normal'
p876
sba(imove
move
p877
(dp878
g871
(I101
I7
tp879
sg873
(I101
I5
tp880
sg875
g876
sba(imove
move
p881
(dp882
g871
(I103
I1
tp883
sg873
(I102
I3
tp884
sg875
g876
sba(imove
move
p885
(dp886
g871
(I97
I7
tp887
sg873
(I97
I5
tp888
sg875
g876
sba(imove
move
p889
(dp890
S'start'
p891
(I101
I2
tp892
sS'end'
p893
(I101
I4
tp894
sS'type'
p895
S'normal'
p896
sba(imove
move
p897
(dp898
g891
(I101
I7
tp899
sg893
(I101
I5
tp900
sg895
g896
sba(imove
move
p901
(dp902
g891
(I103
I1
tp903
sg893
(I102
I3
tp904
sg895
g896
sba(imove
move
p905
(dp906
g891
(I102
I7
tp907
sg893
(I102
I5
tp908
sg895
g896
sba(imove
move
p909
(dp910
g891
(I101
I4
tp911
sg893
(I102
I5
tp912
sg895
g896
sba(imove
move
p913
(dp914
g891
(I103
I7
tp915
sg893
(I103
I6
tp916
sg895
g896
sba(imove
move
p917
(dp918
g891
(I102
I5
tp919
sg893
(I103
I6
tp920
sg895
g896
sba(imove
move
p921
(dp922
g891
(I102
I8
tp923
sg893
(I101
I7
tp924
sg895
g896
sba(imove
move
p925
(dp926
g891
(I103
I6
tp927
sg893
(I104
I7
tp928
sg895
g896
sba(imove
move
p929
(dp930
g891
(I100
I7
tp931
sg893
(I100
I6
tp932
sg895
g896
sba(imove
move
p933
(dp934
g891
(I104
I7
tp935
sg893
(I103
I8
tp936
sg895
g896
sba(imove
move
p937
(dp938
S'start'
p939
(I101
I2
tp940
sS'end'
p941
(I101
I4
tp942
sS'type'
p943
S'normal'
p944
sba(imove
move
p945
(dp946
g939
(I102
I7
tp947
sg941
(I102
I5
tp948
sg943
g944
sba(imove
move
p949
(dp950
g939
(I101
I4
tp951
sg941
(I102
I5
tp952
sg943
g944
sba(imove
move
p953
(dp954
g939
(I103
I7
tp955
sg941
(I103
I6
tp956
sg943
g944
sba(imove
move
p957
(dp958
g939
(I102
I5
tp959
sg941
(I103
I6
tp960
sg943
g944
sba(imove
move
p961
(dp962
g939
(I101
I7
tp963
sg941
(I101
I6
tp964
sg943
g944
sba(imove
move
p965
(dp966
g939
(I103
I6
tp967
sg941
(I104
I7
tp968
sg943
g944
sba(imove
move
p969
(dp970
g939
(I100
I7
tp971
sg941
(I100
I6
tp972
sg943
g944
sba(imove
move
p973
(dp974
g939
(I104
I7
tp975
sg941
(I103
I8
tp976
sg943
g944
sba(imove
move
p977
(dp978
S'start'
p979
(I101
I2
tp980
sS'end'
p981
(I101
I4
tp982
sS'type'
p983
S'normal'
p984
sba(imove
move
p985
(dp986
g979
(I102
I7
tp987
sg981
(I102
I5
tp988
sg983
g984
sba(imove
move
p989
(dp990
g979
(I101
I4
tp991
sg981
(I102
I5
tp992
sg983
g984
sba(imove
move
p993
(dp994
g979
(I103
I7
tp995
sg981
(I103
I6
tp996
sg983
g984
sba(imove
move
p997
(dp998
g979
(I102
I5
tp999
sg981
(I103
I6
tp1000
sg983
g984
sba(imove
move
p1001
(dp1002
g979
(I101
I7
tp1003
sg981
g318
sg983
g984
sba(imove
move
p1004
(dp1005
g979
(I103
I6
tp1006
sg981
(I104
I7
tp1007
sg983
g984
sba(imove
move
p1008
(dp1009
g979
(I102
I8
tp1010
sg981
g291
sg983
g984
sbasS'pieces'
p1011
(dp1012
g374
(ipieces
pawn
p1013
(dp1014
S'color'
p1015
g23
sS'iAm'
p1016
g31
sg29
(I97
I2
tp1017
sS'hasMoved'
p1018
I00
sbsg277
(ipieces
rook
p1019
(dp1020
g1015
g23
sg1016
g74
sg29
(I104
I1
tp1021
sbsg62
(ipieces
pawn
p1022
(dp1023
g1015
g23
sg1016
g31
sg29
(I98
I2
tp1024
sg1018
I00
sbsg86
(ipieces
queen
p1025
(dp1026
g1015
g23
sg1016
g198
sg29
(I100
I1
tp1027
sbsg28
(ipieces
rook
p1028
(dp1029
g1015
g23
sg1016
g74
sg29
(I97
I1
tp1030
sbsg375
(ipieces
pawn
p1031
(dp1032
g1015
g23
sg1016
g31
sg29
(I99
I2
tp1033
sg1018
I00
sbsg631
(ipieces
pawn
p1034
(dp1035
g1015
g23
sg1016
g31
sg29
(I104
I2
tp1036
sg1018
I00
sbsg129
(ipieces
knight
p1037
(dp1038
g1015
g23
sg1016
g304
sg29
(I103
I1
tp1039
sbsg184
(ipieces
knight
p1040
(dp1041
g1015
g442
sg1016
g304
sg29
(I103
I8
tp1042
sbsg834
(ipieces
pawn
p1043
(dp1044
g1015
g23
sg1016
g31
sg29
g1007
sg1018
I01
sbsg63
(ipieces
pawn
p1045
(dp1046
g1015
g23
sg1016
g31
sg29
(I100
I2
tp1047
sg1018
I00
sbsg155
(ipieces
pawn
p1048
(dp1049
g1015
g442
sg1016
g31
sg29
(I98
I7
tp1050
sg1018
I00
sbsg197
(ipieces
king
p1051
(dp1052
g1015
g23
sg1016
g755
sg29
(I101
I1
tp1053
sg1018
I00
sbsg173
(ipieces
bishop
p1054
(dp1055
g1015
g23
sg1016
g472
sg29
(I99
I1
tp1056
sbsg334
(ipieces
bishop
p1057
(dp1058
g1015
g23
sg1016
g472
sg29
(I102
I1
tp1059
sbsg291
(ipieces
bishop
p1060
(dp1061
g1015
g442
sg1016
g472
sg29
g291
sbsg444
(ipieces
bishop
p1062
(dp1063
g1015
g442
sg1016
g472
sg29
(I99
I8
tp1064
sbsg576
(ipieces
rook
p1065
(dp1066
g1015
g442
sg1016
g74
sg29
(I97
I8
tp1067
sbsg386
(ipieces
rook
p1068
(dp1069
g1015
g442
sg1016
g74
sg29
(I104
I8
tp1070
sbsg263
(ipieces
pawn
p1071
(dp1072
g1015
g442
sg1016
g31
sg29
(I97
I7
tp1073
sg1018
I00
sbsg156
(ipieces
pawn
p1074
(dp1075
g1015
g442
sg1016
g31
sg29
(I100
I7
tp1076
sg1018
I00
sbsg470
(ipieces
queen
p1077
(dp1078
g1015
g442
sg1016
g198
sg29
(I100
I8
tp1079
sbsg318
(ipieces
pawn
p1080
(dp1081
g1015
g442
sg1016
g31
sg29
g318
sg1018
I01
sbsg157
(ipieces
knight
p1082
(dp1083
g1015
g442
sg1016
g304
sg29
(I98
I8
tp1084
sbsg64
(ipieces
knight
p1085
(dp1086
g1015
g23
sg1016
g304
sg29
(I98
I1
tp1087
sbsg632
(ipieces
pawn
p1088
(dp1089
g1015
g23
sg1016
g31
sg29
(I102
I2
tp1090
sg1018
I00
sbsg130
(ipieces
pawn
p1091
(dp1092
g1015
g23
sg1016
g31
sg29
(I103
I2
tp1093
sg1018
I00
sbsg264
(ipieces
pawn
p1094
(dp1095
g1015
g442
sg1016
g31
sg29
(I99
I7
tp1096
sg1018
I00
sbsg46
(ipieces
king
p1097
(dp1098
g1015
g442
sg1016
g755
sg29
(I101
I8
tp1099
sg1018
I00
sbssb.