(iboard
board
p0
(dp1
S'moves'
p2
(lp3
(imove
move
p4
(dp5
S'start'
p6
(I101
I2
tp7
sS'end'
p8
(I101
I4
tp9
sS'type'
p10
S'normal'
p11
sba(imove
move
p12
(dp13
g6
(I101
I7
tp14
sg8
(I101
I5
tp15
sg10
g11
sba(imove
move
p16
(dp17
g6
(I103
I1
tp18
sg8
(I102
I3
tp19
sg10
g11
sba(imove
move
p20
(dp21
g6
(I97
I7
tp22
sg8
(I97
I5
tp23
sg10
g11
sba(imove
move
p24
(dp25
S'start'
p26
(I101
I2
tp27
sS'end'
p28
(I101
I4
tp29
sS'type'
p30
S'normal'
p31
sba(imove
move
p32
(dp33
g26
(I101
I7
tp34
sg28
(I101
I5
tp35
sg30
g31
sba(imove
move
p36
(dp37
g26
(I103
I1
tp38
sg28
(I102
I3
tp39
sg30
g31
sba(imove
move
p40
(dp41
g26
(I102
I7
tp42
sg28
(I102
I5
tp43
sg30
g31
sba(imove
move
p44
(dp45
g26
(I101
I4
tp46
sg28
(I102
I5
tp47
sg30
g31
sba(imove
move
p48
(dp49
g26
(I103
I7
tp50
sg28
(I103
I6
tp51
sg30
g31
sba(imove
move
p52
(dp53
g26
(I102
I5
tp54
sg28
(I103
I6
tp55
sg30
g31
sba(imove
move
p56
(dp57
g26
(I102
I8
tp58
sg28
(I101
I7
tp59
sg30
g31
sba(imove
move
p60
(dp61
g26
(I103
I6
tp62
sg28
(I104
I7
tp63
sg30
g31
sba(imove
move
p64
(dp65
g26
(I100
I7
tp66
sg28
(I100
I6
tp67
sg30
g31
sba(imove
move
p68
(dp69
g26
(I104
I7
tp70
sg28
(I103
I8
tp71
sg30
g31
sba(imove
move
p72
(dp73
S'start'
p74
(I101
I2
tp75
sS'end'
p76
(I101
I4
tp77
sS'type'
p78
S'normal'
p79
sba(imove
move
p80
(dp81
g74
(I102
I7
tp82
sg76
(I102
I5
tp83
sg78
g79
sba(imove
move
p84
(dp85
g74
(I101
I4
tp86
sg76
(I102
I5
tp87
sg78
g79
sba(imove
move
p88
(dp89
g74
(I103
I7
tp90
sg76
(I103
I6
tp91
sg78
g79
sba(imove
move
p92
(dp93
g74
(I102
I5
tp94
sg76
(I103
I6
tp95
sg78
g79
sba(imove
move
p96
(dp97
g74
(I101
I7
tp98
sg76
(I101
I6
tp99
sg78
g79
sba(imove
move
p100
(dp101
g74
(I103
I6
tp102
sg76
(I104
I7
tp103
sg78
g79
sba(imove
move
p104
(dp105
g74
(I100
I7
tp106
sg76
(I100
I6
tp107
sg78
g79
sba(imove
move
p108
(dp109
g74
(I104
I7
tp110
sg76
(I103
I8
tp111
sg78
g79
sba(imove
move
p112
(dp113
S'start'
p114
(I101
I2
tp115
sS'end'
p116
(I101
I4
tp117
sS'type'
p118
S'normal'
p119
sba(imove
move
p120
(dp121
g114
(I102
I7
tp122
sg116
(I102
I5
tp123
sg118
g119
sba(imove
move
p124
(dp125
g114
(I101
I4
tp126
sg116
(I102
I5
tp127
sg118
g119
sba(imove
move
p128
(dp129
g114
(I103
I7
tp130
sg116
(I103
I6
tp131
sg118
g119
sba(imove
move
p132
(dp133
g114
(I102
I5
tp134
sg116
(I103
I6
tp135
sg118
g119
sba(imove
move
p136
(dp137
g114
(I101
I7
tp138
sg116
(I101
I6
tp139
sg118
g119
sba(imove
move
p140
(dp141
g114
(I103
I6
tp142
sg116
(I104
I7
tp143
sg118
g119
sba(imove
move
p144
(dp145
g114
(I102
I8
tp146
sg116
(I101
I7
tp147
sg118
g119
sba(imove
move
p148
(dp149
S'start'
p150
(I101
I2
tp151
sS'end'
p152
(I101
I4
tp153
sS'type'
p154
S'normal'
p155
sba(imove
move
p156
(dp157
g150
(I101
I7
tp158
sg152
(I101
I5
tp159
sg154
g155
sba(imove
move
p160
(dp161
g150
(I100
I1
tp162
sg152
(I104
I5
tp163
sg154
g155
sba(imove
move
p164
(dp165
g150
(I104
I7
tp166
sg152
(I104
I6
tp167
sg154
g155
sbasS'temp'
p168
NsS'kings'
p169
(dp170
S'B'
p171
(I101
I8
tp172
sS'W'
p173
(I101
I1
tp174
ssS'turnCount'
p175
I4
sS'whitesTurn'
p176
I01
sS'squares'
p177
(dp178
(I97
I2
tp179
(isquare
square
p180
(dp181
S'neighbors'
p182
(dp183
S'right'
p184
(I98
I2
tp185
sS'top'
p186
(I97
I3
tp187
sS'btm-right'
p188
(I98
I1
tp189
sS'btm'
p190
(I97
I1
tp191
sS'top-right'
p192
(I98
I3
tp193
sS'left'
p194
NsS'top-left'
p195
NsS'btm-left'
p196
NssS'contentColor'
p197
g173
sS'blackAttackingMe'
p198
(lp199
sS'whiteAttackingMe'
p200
(lp201
(I97
I1
tp202
asS'pos'
p203
g179
sS'content'
p204
S'Pawn'
p205
sbs(I102
I7
tp206
(isquare
square
p207
(dp208
g182
(dp209
g184
(I103
I7
tp210
sg186
(I102
I8
tp211
sg188
(I103
I6
tp212
sg190
(I102
I6
tp213
sg192
(I103
I8
tp214
sg194
(I101
I7
tp215
sg195
(I101
I8
tp216
sg196
(I101
I6
tp217
ssg197
g171
sg198
(lp218
(I101
I8
tp219
asg200
(lp220
g163
asg203
g206
sg204
g205
sbs(I99
I3
tp221
(isquare
square
p222
(dp223
g182
(dp224
g184
(I100
I3
tp225
sg186
(I99
I4
tp226
sg188
(I100
I2
tp227
sg190
(I99
I2
tp228
sg192
(I100
I4
tp229
sg194
(I98
I3
tp230
sg195
(I98
I4
tp231
sg196
(I98
I2
tp232
ssg197
S'_'
p233
sg198
(lp234
sg200
(lp235
(I98
I2
tp236
a(I100
I2
tp237
a(I98
I1
tp238
asg203
g221
sg204
g233
sbs(I104
I1
tp239
(isquare
square
p240
(dp241
g182
(dp242
g188
Nsg186
(I104
I2
tp243
sg184
Nsg190
Nsg196
Nsg195
(I103
I2
tp244
sg194
(I103
I1
tp245
ssg197
g173
sg198
(lp246
sg200
(lp247
sg203
g239
sg204
S'Rook'
p248
sbs(I104
I5
tp249
(isquare
square
p250
(dp251
g182
(dp252
g184
Nsg186
(I104
I6
tp253
sg188
Nsg190
(I104
I4
tp254
sg192
Nsg196
(I103
I4
tp255
sg195
(I103
I6
tp256
sg194
(I103
I5
tp257
ssg197
g173
sg198
(lp258
sg200
(lp259
sg203
g249
sg204
S'Queen'
p260
sbs(I103
I6
tp261
(isquare
square
p262
(dp263
g182
(dp264
g184
(I104
I6
tp265
sg186
(I103
I7
tp266
sg188
(I104
I5
tp267
sg190
(I103
I5
tp268
sg192
(I104
I7
tp269
sg194
(I102
I6
tp270
sg195
(I102
I7
tp271
sg196
(I102
I5
tp272
ssg197
g233
sg198
(lp273
(I102
I7
tp274
asg200
(lp275
g163
asg203
g261
sg204
g233
sbs(I100
I4
tp276
(isquare
square
p277
(dp278
g182
(dp279
g184
(I101
I4
tp280
sg186
(I100
I5
tp281
sg188
(I101
I3
tp282
sg190
(I100
I3
tp283
sg192
(I101
I5
tp284
sg194
(I99
I4
tp285
sg195
(I99
I5
tp286
sg196
(I99
I3
tp287
ssg197
g233
sg198
(lp288
g159
asg200
(lp289
sg203
g276
sg204
g233
sbs(I102
I3
tp290
(isquare
square
p291
(dp292
g182
(dp293
g184
(I103
I3
tp294
sg186
(I102
I4
tp295
sg188
(I103
I2
tp296
sg190
(I102
I2
tp297
sg192
(I103
I4
tp298
sg194
(I101
I3
tp299
sg195
(I101
I4
tp300
sg196
(I101
I2
tp301
ssg197
g233
sg198
(lp302
sg200
(lp303
(I103
I1
tp304
a(I103
I2
tp305
ag163
asg203
g290
sg204
g233
sbs(I97
I5
tp306
(isquare
square
p307
(dp308
g182
(dp309
g184
(I98
I5
tp310
sg186
(I97
I6
tp311
sg188
(I98
I4
tp312
sg190
(I97
I4
tp313
sg192
(I98
I6
tp314
sg194
Nsg195
Nsg196
Nssg197
g233
sg198
(lp315
sg200
(lp316
sg203
g306
sg204
g233
sbs(I99
I6
tp317
(isquare
square
p318
(dp319
g182
(dp320
g184
(I100
I6
tp321
sg186
(I99
I7
tp322
sg188
(I100
I5
tp323
sg190
(I99
I5
tp324
sg192
(I100
I7
tp325
sg194
(I98
I6
tp326
sg195
(I98
I7
tp327
sg196
(I98
I5
tp328
ssg197
g233
sg198
(lp329
(I98
I7
tp330
a(I100
I7
tp331
a(I98
I8
tp332
asg200
(lp333
sg203
g317
sg204
g233
sbs(I98
I2
tp334
(isquare
square
p335
(dp336
g182
(dp337
g184
(I99
I2
tp338
sg186
(I98
I3
tp339
sg188
(I99
I1
tp340
sg190
(I98
I1
tp341
sg192
(I99
I3
tp342
sg194
(I97
I2
tp343
sg195
(I97
I3
tp344
sg196
(I97
I1
tp345
ssg197
g173
sg198
(lp346
sg200
(lp347
(I99
I1
tp348
asg203
g334
sg204
g205
sbs(I104
I6
tp349
(isquare
square
p350
(dp351
g182
(dp352
g184
Nsg186
(I104
I7
tp353
sg188
Nsg190
(I104
I5
tp354
sg192
Nsg196
(I103
I5
tp355
sg195
(I103
I7
tp356
sg194
(I103
I6
tp357
ssg197
g171
sg198
(lp358
(I103
I8
tp359
a(I104
I8
tp360
a(I103
I7
tp361
asg200
(lp362
g163
asg203
g349
sg204
g205
sbs(I100
I1
tp363
(isquare
square
p364
(dp365
g182
(dp366
g188
Nsg186
(I100
I2
tp367
sg184
(I101
I1
tp368
sg190
Nsg192
(I101
I2
tp369
sg196
Nsg195
(I99
I2
tp370
sg194
(I99
I1
tp371
ssg197
g233
sg198
(lp372
sg200
(lp373
(I101
I1
tp374
ag163
asg203
g363
sg204
g233
sbs(I97
I1
tp375
(isquare
square
p376
(dp377
g182
(dp378
g188
Nsg186
(I97
I2
tp379
sg184
(I98
I1
tp380
sg190
Nsg192
(I98
I2
tp381
sg196
Nsg195
Nsg194
Nssg197
g173
sg198
(lp382
sg200
(lp383
sg203
g375
sg204
g248
sbs(I101
I5
tp384
(isquare
square
p385
(dp386
g182
(dp387
g184
(I102
I5
tp388
sg186
(I101
I6
tp389
sg188
(I102
I4
tp390
sg190
(I101
I4
tp391
sg192
(I102
I6
tp392
sg194
(I100
I5
tp393
sg195
(I100
I6
tp394
sg196
(I100
I4
tp395
ssg197
g171
sg198
(lp396
sg200
(lp397
g163
asg203
g384
sg204
g205
sbs(I102
I4
tp398
(isquare
square
p399
(dp400
g182
(dp401
g184
(I103
I4
tp402
sg186
(I102
I5
tp403
sg188
(I103
I3
tp404
sg190
(I102
I3
tp405
sg192
(I103
I5
tp406
sg194
(I101
I4
tp407
sg195
(I101
I5
tp408
sg196
(I101
I3
tp409
ssg197
g233
sg198
(lp410
g159
asg200
(lp411
sg203
g398
sg204
g233
sbs(I99
I2
tp412
(isquare
square
p413
(dp414
g182
(dp415
g184
(I100
I2
tp416
sg186
(I99
I3
tp417
sg188
(I100
I1
tp418
sg190
(I99
I1
tp419
sg192
(I100
I3
tp420
sg194
(I98
I2
tp421
sg195
(I98
I3
tp422
sg196
(I98
I1
tp423
ssg197
g173
sg198
(lp424
sg200
(lp425
sg203
g412
sg204
g205
sbs(I98
I6
tp426
(isquare
square
p427
(dp428
g182
(dp429
g184
(I99
I6
tp430
sg186
(I98
I7
tp431
sg188
(I99
I5
tp432
sg190
(I98
I5
tp433
sg192
(I99
I7
tp434
sg194
(I97
I6
tp435
sg195
(I97
I7
tp436
sg196
(I97
I5
tp437
ssg197
g233
sg198
(lp438
(I97
I7
tp439
a(I99
I7
tp440
asg200
(lp441
sg203
g426
sg204
g233
sbs(I104
I2
tp442
(isquare
square
p443
(dp444
g182
(dp445
g184
Nsg186
(I104
I3
tp446
sg188
Nsg190
(I104
I1
tp447
sg192
Nsg196
(I103
I1
tp448
sg195
(I103
I3
tp449
sg194
(I103
I2
tp450
ssg197
g173
sg198
(lp451
sg200
(lp452
(I104
I1
tp453
ag163
asg203
g442
sg204
g205
sbs(I103
I5
tp454
(isquare
square
p455
(dp456
g182
(dp457
g184
(I104
I5
tp458
sg186
(I103
I6
tp459
sg188
(I104
I4
tp460
sg190
(I103
I4
tp461
sg192
(I104
I6
tp462
sg194
(I102
I5
tp463
sg195
(I102
I6
tp464
sg196
(I102
I4
tp465
ssg197
g233
sg198
(lp466
g167
a(I100
I8
tp467
asg200
(lp468
g163
asg203
g454
sg204
g233
sbs(I103
I1
tp469
(isquare
square
p470
(dp471
g182
(dp472
g188
Nsg186
(I103
I2
tp473
sg184
(I104
I1
tp474
sg190
Nsg192
(I104
I2
tp475
sg196
Nsg195
(I102
I2
tp476
sg194
(I102
I1
tp477
ssg197
g173
sg198
(lp478
sg200
(lp479
g453
asg203
g469
sg204
S'Knight'
p480
sbs(I100
I5
tp481
(isquare
square
p482
(dp483
g182
(dp484
g184
(I101
I5
tp485
sg186
(I100
I6
tp486
sg188
(I101
I4
tp487
sg190
(I100
I4
tp488
sg192
(I101
I6
tp489
sg194
(I99
I5
tp490
sg195
(I99
I6
tp491
sg196
(I99
I4
tp492
ssg197
g233
sg198
(lp493
sg200
(lp494
g153
asg203
g481
sg204
g233
sbs(I101
I2
tp495
(isquare
square
p496
(dp497
g182
(dp498
g184
(I102
I2
tp499
sg186
(I101
I3
tp500
sg188
(I102
I1
tp501
sg190
(I101
I1
tp502
sg192
(I102
I3
tp503
sg194
(I100
I2
tp504
sg195
(I100
I3
tp505
sg196
(I100
I1
tp506
ssg197
g233
sg198
(lp507
sg200
(lp508
g304
ag374
a(I102
I1
tp509
ag163
asg203
g495
sg204
g233
sbs(I97
I4
tp510
(isquare
square
p511
(dp512
g182
(dp513
g184
(I98
I4
tp514
sg186
(I97
I5
tp515
sg188
(I98
I3
tp516
sg190
(I97
I3
tp517
sg192
(I98
I5
tp518
sg194
Nsg195
Nsg196
Nssg197
g233
sg198
(lp519
sg200
(lp520
sg203
g510
sg204
g233
sbs(I102
I2
tp521
(isquare
square
p522
(dp523
g182
(dp524
g184
(I103
I2
tp525
sg186
(I102
I3
tp526
sg188
(I103
I1
tp527
sg190
(I102
I1
tp528
sg192
(I103
I3
tp529
sg194
(I101
I2
tp530
sg195
(I101
I3
tp531
sg196
(I101
I1
tp532
ssg197
g173
sg198
(lp533
sg200
(lp534
g374
asg203
g521
sg204
g205
sbs(I98
I3
tp535
(isquare
square
p536
(dp537
g182
(dp538
g184
(I99
I3
tp539
sg186
(I98
I4
tp540
sg188
(I99
I2
tp541
sg190
(I98
I2
tp542
sg192
(I99
I4
tp543
sg194
(I97
I3
tp544
sg195
(I97
I4
tp545
sg196
(I97
I2
tp546
ssg197
g233
sg198
(lp547
sg200
(lp548
(I97
I2
tp549
a(I99
I2
tp550
asg203
g535
sg204
g233
sbs(I104
I7
tp551
(isquare
square
p552
(dp553
g182
(dp554
g184
Nsg186
(I104
I8
tp555
sg188
Nsg190
(I104
I6
tp556
sg192
Nsg196
(I103
I6
tp557
sg195
(I103
I8
tp558
sg194
(I103
I7
tp559
ssg197
g233
sg198
(lp560
g360
asg200
(lp561
sg203
g551
sg204
g233
sbs(I100
I2
tp562
(isquare
square
p563
(dp564
g182
(dp565
g184
(I101
I2
tp566
sg186
(I100
I3
tp567
sg188
(I101
I1
tp568
sg190
(I100
I1
tp569
sg192
(I101
I3
tp570
sg194
(I99
I2
tp571
sg195
(I99
I3
tp572
sg196
(I99
I1
tp573
ssg197
g173
sg198
(lp574
sg200
(lp575
g374
ag348
ag238
asg203
g562
sg204
g205
sbs(I102
I5
tp576
(isquare
square
p577
(dp578
g182
(dp579
g184
(I103
I5
tp580
sg186
(I102
I6
tp581
sg188
(I103
I4
tp582
sg190
(I102
I4
tp583
sg192
(I103
I6
tp584
sg194
(I101
I5
tp585
sg195
(I101
I6
tp586
sg196
(I101
I4
tp587
ssg197
g233
sg198
(lp588
sg200
(lp589
g153
ag163
asg203
g576
sg204
g233
sbs(I99
I5
tp590
(isquare
square
p591
(dp592
g182
(dp593
g184
(I100
I5
tp594
sg186
(I99
I6
tp595
sg188
(I100
I4
tp596
sg190
(I99
I4
tp597
sg192
(I100
I6
tp598
sg194
(I98
I5
tp599
sg195
(I98
I6
tp600
sg196
(I98
I4
tp601
ssg197
g233
sg198
(lp602
(I102
I8
tp603
asg200
(lp604
sg203
g590
sg204
g233
sbs(I98
I7
tp605
(isquare
square
p606
(dp607
g182
(dp608
g184
(I99
I7
tp609
sg186
(I98
I8
tp610
sg188
(I99
I6
tp611
sg190
(I98
I6
tp612
sg192
(I99
I8
tp613
sg194
(I97
I7
tp614
sg195
(I97
I8
tp615
sg196
(I97
I6
tp616
ssg197
g171
sg198
(lp617
(I99
I8
tp618
asg200
(lp619
sg203
g605
sg204
g205
sbs(I104
I3
tp620
(isquare
square
p621
(dp622
g182
(dp623
g184
Nsg186
(I104
I4
tp624
sg188
Nsg190
(I104
I2
tp625
sg192
Nsg196
(I103
I2
tp626
sg195
(I103
I4
tp627
sg194
(I103
I3
tp628
ssg197
g233
sg198
(lp629
sg200
(lp630
g304
ag305
ag163
asg203
g620
sg204
g233
sbs(I101
I7
tp631
(isquare
square
p632
(dp633
g182
(dp634
g184
(I102
I7
tp635
sg186
(I101
I8
tp636
sg188
(I102
I6
tp637
sg190
(I101
I6
tp638
sg192
(I102
I8
tp639
sg194
(I100
I7
tp640
sg195
(I100
I8
tp641
sg196
(I100
I6
tp642
ssg197
g233
sg198
(lp643
g359
ag603
ag467
ag219
asg200
(lp644
sg203
g631
sg204
g233
sbs(I100
I6
tp645
(isquare
square
p646
(dp647
g182
(dp648
g184
(I101
I6
tp649
sg186
(I100
I7
tp650
sg188
(I101
I5
tp651
sg190
(I100
I5
tp652
sg192
(I101
I7
tp653
sg194
(I99
I6
tp654
sg195
(I99
I7
tp655
sg196
(I99
I5
tp656
ssg197
g233
sg198
(lp657
g603
ag440
asg200
(lp658
sg203
g645
sg204
g233
sbs(I102
I1
tp659
(isquare
square
p660
(dp661
g182
(dp662
g188
Nsg186
(I102
I2
tp663
sg184
(I103
I1
tp664
sg190
Nsg192
(I103
I2
tp665
sg196
Nsg195
(I101
I2
tp666
sg194
(I101
I1
tp667
ssg197
g173
sg198
(lp668
sg200
(lp669
g374
asg203
g659
sg204
S'Bishop'
p670
sbs(I99
I1
tp671
(isquare
square
p672
(dp673
g182
(dp674
g188
Nsg186
(I99
I2
tp675
sg184
(I100
I1
tp676
sg190
Nsg192
(I100
I2
tp677
sg196
Nsg195
(I98
I2
tp678
sg194
(I98
I1
tp679
ssg197
g173
sg198
(lp680
sg200
(lp681
sg203
g671
sg204
g670
sbs(I101
I4
tp682
(isquare
square
p683
(dp684
g182
(dp685
g184
(I102
I4
tp686
sg186
(I101
I5
tp687
sg188
(I102
I3
tp688
sg190
(I101
I3
tp689
sg192
(I102
I5
tp690
sg194
(I100
I4
tp691
sg195
(I100
I5
tp692
sg196
(I100
I3
tp693
ssg197
g173
sg198
(lp694
sg200
(lp695
sg203
g682
sg204
g205
sbs(I99
I8
tp696
(isquare
square
p697
(dp698
g182
(dp699
g184
(I100
I8
tp700
sg186
Nsg188
(I100
I7
tp701
sg190
(I99
I7
tp702
sg192
Nsg196
(I98
I7
tp703
sg195
Nsg194
(I98
I8
tp704
ssg197
g171
sg198
(lp705
g467
asg200
(lp706
sg203
g696
sg204
g670
sbs(I97
I8
tp707
(isquare
square
p708
(dp709
g182
(dp710
g184
(I98
I8
tp711
sg186
Nsg188
(I98
I7
tp712
sg190
(I97
I7
tp713
sg192
Nsg194
Nsg195
Nsg196
Nssg197
g171
sg198
(lp714
sg200
(lp715
sg203
g707
sg204
g248
sbs(I104
I8
tp716
(isquare
square
p717
(dp718
g182
(dp719
g184
Nsg186
Nsg188
Nsg190
(I104
I7
tp720
sg192
Nsg196
(I103
I7
tp721
sg195
Nsg194
(I103
I8
tp722
ssg197
g171
sg198
(lp723
sg200
(lp724
sg203
g716
sg204
g248
sbs(I100
I3
tp725
(isquare
square
p726
(dp727
g182
(dp728
g184
(I101
I3
tp729
sg186
(I100
I4
tp730
sg188
(I101
I2
tp731
sg190
(I100
I2
tp732
sg192
(I101
I4
tp733
sg194
(I99
I3
tp734
sg195
(I99
I4
tp735
sg196
(I99
I2
tp736
ssg197
g233
sg198
(lp737
sg200
(lp738
g550
ag509
asg203
g725
sg204
g233
sbs(I97
I7
tp739
(isquare
square
p740
(dp741
g182
(dp742
g184
(I98
I7
tp743
sg186
(I97
I8
tp744
sg188
(I98
I6
tp745
sg190
(I97
I6
tp746
sg192
(I98
I8
tp747
sg194
Nsg195
Nsg196
Nssg197
g171
sg198
(lp748
(I97
I8
tp749
asg200
(lp750
sg203
g739
sg204
g205
sbs(I99
I4
tp751
(isquare
square
p752
(dp753
g182
(dp754
g184
(I100
I4
tp755
sg186
(I99
I5
tp756
sg188
(I100
I3
tp757
sg190
(I99
I3
tp758
sg192
(I100
I5
tp759
sg194
(I98
I4
tp760
sg195
(I98
I5
tp761
sg196
(I98
I3
tp762
ssg197
g233
sg198
(lp763
sg200
(lp764
g509
asg203
g751
sg204
g233
sbs(I98
I4
tp765
(isquare
square
p766
(dp767
g182
(dp768
g184
(I99
I4
tp769
sg186
(I98
I5
tp770
sg188
(I99
I3
tp771
sg190
(I98
I3
tp772
sg192
(I99
I5
tp773
sg194
(I97
I4
tp774
sg195
(I97
I5
tp775
sg196
(I97
I3
tp776
ssg197
g233
sg198
(lp777
g603
asg200
(lp778
sg203
g765
sg204
g233
sbs(I104
I4
tp779
(isquare
square
p780
(dp781
g182
(dp782
g184
Nsg186
(I104
I5
tp783
sg188
Nsg190
(I104
I3
tp784
sg192
Nsg196
(I103
I3
tp785
sg195
(I103
I5
tp786
sg194
(I103
I4
tp787
ssg197
g233
sg198
(lp788
g467
asg200
(lp789
g163
asg203
g779
sg204
g233
sbs(I103
I3
tp790
(isquare
square
p791
(dp792
g182
(dp793
g184
(I104
I3
tp794
sg186
(I103
I4
tp795
sg188
(I104
I2
tp796
sg190
(I103
I2
tp797
sg192
(I104
I4
tp798
sg194
(I102
I3
tp799
sg195
(I102
I4
tp800
sg196
(I102
I2
tp801
ssg197
g233
sg198
(lp802
sg200
(lp803
(I104
I2
tp804
a(I102
I2
tp805
asg203
g790
sg204
g233
sbs(I100
I7
tp806
(isquare
square
p807
(dp808
g182
(dp809
g184
(I101
I7
tp810
sg186
(I100
I8
tp811
sg188
(I101
I6
tp812
sg190
(I100
I6
tp813
sg192
(I101
I8
tp814
sg194
(I99
I7
tp815
sg195
(I99
I8
tp816
sg196
(I99
I6
tp817
ssg197
g171
sg198
(lp818
g618
ag467
ag332
ag219
asg200
(lp819
sg203
g806
sg204
g205
sbs(I97
I3
tp820
(isquare
square
p821
(dp822
g182
(dp823
g184
(I98
I3
tp824
sg186
(I97
I4
tp825
sg188
(I98
I2
tp826
sg190
(I97
I2
tp827
sg192
(I98
I4
tp828
sg194
Nsg195
Nsg196
Nssg197
g233
sg198
(lp829
g603
asg200
(lp830
g236
ag238
asg203
g820
sg204
g233
sbs(I100
I8
tp831
(isquare
square
p832
(dp833
g182
(dp834
g184
(I101
I8
tp835
sg186
Nsg188
(I101
I7
tp836
sg190
(I100
I7
tp837
sg192
Nsg196
(I99
I7
tp838
sg195
Nsg194
(I99
I8
tp839
ssg197
g171
sg198
(lp840
g219
asg200
(lp841
sg203
g831
sg204
g260
sbs(I101
I6
tp842
(isquare
square
p843
(dp844
g182
(dp845
g184
(I102
I6
tp846
sg186
(I101
I7
tp847
sg188
(I102
I5
tp848
sg190
(I101
I5
tp849
sg192
(I102
I7
tp850
sg194
(I100
I6
tp851
sg195
(I100
I7
tp852
sg196
(I100
I5
tp853
ssg197
g233
sg198
(lp854
g274
ag331
asg200
(lp855
sg203
g842
sg204
g233
sbs(I98
I8
tp856
(isquare
square
p857
(dp858
g182
(dp859
g184
(I99
I8
tp860
sg186
Nsg188
(I99
I7
tp861
sg190
(I98
I7
tp862
sg192
Nsg196
(I97
I7
tp863
sg195
Nsg194
(I97
I8
tp864
ssg197
g171
sg198
(lp865
g749
asg200
(lp866
sg203
g856
sg204
g480
sbs(I102
I8
tp867
(isquare
square
p868
(dp869
g182
(dp870
g184
(I103
I8
tp871
sg186
Nsg188
(I103
I7
tp872
sg190
(I102
I7
tp873
sg192
Nsg196
(I101
I7
tp874
sg195
Nsg194
(I101
I8
tp875
ssg197
g171
sg198
(lp876
g467
ag219
asg200
(lp877
sg203
g867
sg204
g670
sbs(I102
I6
tp878
(isquare
square
p879
(dp880
g182
(dp881
g184
(I103
I6
tp882
sg186
(I102
I7
tp883
sg188
(I103
I5
tp884
sg190
(I102
I5
tp885
sg192
(I103
I7
tp886
sg194
(I101
I6
tp887
sg195
(I101
I7
tp888
sg196
(I101
I5
tp889
ssg197
g233
sg198
(lp890
g359
ag467
ag361
asg200
(lp891
sg203
g878
sg204
g233
sbs(I103
I7
tp892
(isquare
square
p893
(dp894
g182
(dp895
g184
(I104
I7
tp896
sg186
(I103
I8
tp897
sg188
(I104
I6
tp898
sg190
(I103
I6
tp899
sg192
(I104
I8
tp900
sg194
(I102
I7
tp901
sg195
(I102
I8
tp902
sg196
(I102
I6
tp903
ssg197
g171
sg198
(lp904
g603
asg200
(lp905
sg203
g892
sg204
g205
sbs(I98
I1
tp906
(isquare
square
p907
(dp908
g182
(dp909
g188
Nsg186
(I98
I2
tp910
sg184
(I99
I1
tp911
sg190
Nsg192
(I99
I2
tp912
sg196
Nsg195
(I97
I2
tp913
sg194
(I97
I1
tp914
ssg197
g173
sg198
(lp915
sg200
(lp916
g202
asg203
g906
sg204
g480
sbs(I101
I1
tp917
(isquare
square
p918
(dp919
g182
(dp920
g188
Nsg186
(I101
I2
tp921
sg184
(I102
I1
tp922
sg190
Nsg192
(I102
I2
tp923
sg196
Nsg195
(I100
I2
tp924
sg194
(I100
I1
tp925
ssg197
g173
sg198
(lp926
sg200
(lp927
sg203
g917
sg204
S'King'
p928
sbs(I97
I6
tp929
(isquare
square
p930
(dp931
g182
(dp932
g184
(I98
I6
tp933
sg186
(I97
I7
tp934
sg188
(I98
I5
tp935
sg190
(I97
I5
tp936
sg192
(I98
I7
tp937
sg194
Nsg195
Nsg196
Nssg197
g233
sg198
(lp938
g330
ag332
asg200
(lp939
g509
asg203
g929
sg204
g233
sbs(I103
I2
tp940
(isquare
square
p941
(dp942
g182
(dp943
g184
(I104
I2
tp944
sg186
(I103
I3
tp945
sg188
(I104
I1
tp946
sg190
(I103
I1
tp947
sg192
(I104
I3
tp948
sg194
(I102
I2
tp949
sg195
(I102
I3
tp950
sg196
(I102
I1
tp951
ssg197
g173
sg198
(lp952
sg200
(lp953
g509
asg203
g940
sg204
g205
sbs(I99
I7
tp954
(isquare
square
p955
(dp956
g182
(dp957
g184
(I100
I7
tp958
sg186
(I99
I8
tp959
sg188
(I100
I6
tp960
sg190
(I99
I6
tp961
sg192
(I100
I8
tp962
sg194
(I98
I7
tp963
sg195
(I98
I8
tp964
sg196
(I98
I6
tp965
ssg197
g171
sg198
(lp966
g467
asg200
(lp967
sg203
g954
sg204
g205
sbs(I98
I5
tp968
(isquare
square
p969
(dp970
g182
(dp971
g184
(I99
I5
tp972
sg186
(I98
I6
tp973
sg188
(I99
I4
tp974
sg190
(I98
I4
tp975
sg192
(I99
I6
tp976
sg194
(I97
I5
tp977
sg195
(I97
I6
tp978
sg196
(I97
I4
tp979
ssg197
g233
sg198
(lp980
sg200
(lp981
g509
asg203
g968
sg204
g233
sbs(I101
I3
tp982
(isquare
square
p983
(dp984
g182
(dp985
g184
(I102
I3
tp986
sg186
(I101
I4
tp987
sg188
(I102
I2
tp988
sg190
(I101
I2
tp989
sg192
(I102
I4
tp990
sg194
(I100
I3
tp991
sg195
(I100
I4
tp992
sg196
(I100
I2
tp993
ssg197
g233
sg198
(lp994
sg200
(lp995
g237
ag805
asg203
g982
sg204
g233
sbs(I103
I8
tp996
(isquare
square
p997
(dp998
g182
(dp999
g184
(I104
I8
tp1000
sg186
Nsg188
(I104
I7
tp1001
sg190
(I103
I7
tp1002
sg192
Nsg196
(I102
I7
tp1003
sg195
Nsg194
(I102
I8
tp1004
ssg197
g171
sg198
(lp1005
g360
asg200
(lp1006
sg203
g996
sg204
g480
sbs(I101
I8
tp1007
(isquare
square
p1008
(dp1009
g182
(dp1010
g184
(I102
I8
tp1011
sg186
Nsg188
(I102
I7
tp1012
sg190
(I101
I7
tp1013
sg192
Nsg196
(I100
I7
tp1014
sg195
Nsg194
(I100
I8
tp1015
ssg197
g171
sg198
(lp1016
g467
asg200
(lp1017
sg203
g1007
sg204
g928
sbs(I103
I4
tp1018
(isquare
square
p1019
(dp1020
g182
(dp1021
g184
(I104
I4
tp1022
sg186
(I103
I5
tp1023
sg188
(I104
I3
tp1024
sg190
(I103
I3
tp1025
sg192
(I104
I5
tp1026
sg194
(I102
I4
tp1027
sg195
(I102
I5
tp1028
sg196
(I102
I3
tp1029
ssg197
g233
sg198
(lp1030
sg200
(lp1031
g163
asg203
g1018
sg204
g233
sbssS'pieces'
p1032
(dp1033
g549
(ipieces
pawn
p1034
(dp1035
S'color'
p1036
g173
sS'iAm'
p1037
g205
sg203
g549
sS'hasMoved'
p1038
I00
sbsg274
(ipieces
pawn
p1039
(dp1040
g1036
g171
sg1037
g205
sg203
g274
sg1038
I00
sbsg159
(ipieces
pawn
p1041
(dp1042
g1036
g171
sg1037
g205
sg203
g159
sg1038
I01
sbsg453
(ipieces
rook
p1043
(dp1044
g1036
g173
sg1037
g248
sg203
(I104
I1
tp1045
sbsg236
(ipieces
pawn
p1046
(dp1047
g1036
g173
sg1037
g205
sg203
(I98
I2
tp1048
sg1038
I00
sbsg167
(ipieces
pawn
p1049
(dp1050
g1036
g171
sg1037
g205
sg203
g167
sg1038
I01
sbsg202
(ipieces
rook
p1051
(dp1052
g1036
g173
sg1037
g248
sg203
(I97
I1
tp1053
sbsg550
(ipieces
pawn
p1054
(dp1055
g1036
g173
sg1037
g205
sg203
(I99
I2
tp1056
sg1038
I00
sbsg804
(ipieces
pawn
p1057
(dp1058
g1036
g173
sg1037
g205
sg203
(I104
I2
tp1059
sg1038
I00
sbsg304
(ipieces
knight
p1060
(dp1061
g1036
g173
sg1037
g480
sg203
(I103
I1
tp1062
sbsg359
(ipieces
knight
p1063
(dp1064
g1036
g171
sg1037
g480
sg203
(I103
I8
tp1065
sbsg237
(ipieces
pawn
p1066
(dp1067
g1036
g173
sg1037
g205
sg203
(I100
I2
tp1068
sg1038
I00
sbsg330
(ipieces
pawn
p1069
(dp1070
g1036
g171
sg1037
g205
sg203
(I98
I7
tp1071
sg1038
I00
sbsg374
(ipieces
king
p1072
(dp1073
g1036
g173
sg1037
g928
sg203
(I101
I1
tp1074
sg1038
I00
sbsg348
(ipieces
bishop
p1075
(dp1076
g1036
g173
sg1037
g670
sg203
(I99
I1
tp1077
sbsg603
(ipieces
bishop
p1078
(dp1079
g1036
g171
sg1037
g670
sg203
(I102
I8
tp1080
sbsg509
(ipieces
bishop
p1081
(dp1082
g1036
g173
sg1037
g670
sg203
(I102
I1
tp1083
sbsg153
(ipieces
pawn
p1084
(dp1085
g1036
g173
sg1037
g205
sg203
g153
sg1038
I01
sbsg618
(ipieces
bishop
p1086
(dp1087
g1036
g171
sg1037
g670
sg203
(I99
I8
tp1088
sbsg749
(ipieces
rook
p1089
(dp1090
g1036
g171
sg1037
g248
sg203
(I97
I8
tp1091
sbsg360
(ipieces
rook
p1092
(dp1093
g1036
g171
sg1037
g248
sg203
(I104
I8
tp1094
sbsg439
(ipieces
pawn
p1095
(dp1096
g1036
g171
sg1037
g205
sg203
(I97
I7
tp1097
sg1038
I00
sbsg331
(ipieces
pawn
p1098
(dp1099
g1036
g171
sg1037
g205
sg203
(I100
I7
tp1100
sg1038
I00
sbsg467
(ipieces
queen
p1101
(dp1102
g1036
g171
sg1037
g260
sg203
(I100
I8
tp1103
sbsg332
(ipieces
knight
p1104
(dp1105
g1036
g171
sg1037
g480
sg203
(I98
I8
tp1106
sbsg361
(ipieces
pawn
p1107
(dp1108
g1036
g171
sg1037
g205
sg203
(I103
I7
tp1109
sg1038
I00
sbsg238
(ipieces
knight
p1110
(dp1111
g1036
g173
sg1037
g480
sg203
(I98
I1
tp1112
sbsg805
(ipieces
pawn
p1113
(dp1114
g1036
g173
sg1037
g205
sg203
(I102
I2
tp1115
sg1038
I00
sbsg305
(ipieces
pawn
p1116
(dp1117
g1036
g173
sg1037
g205
sg203
(I103
I2
tp1118
sg1038
I00
sbsg440
(ipieces
pawn
p1119
(dp1120
g1036
g171
sg1037
g205
sg203
(I99
I7
tp1121
sg1038
I00
sbsg163
(ipieces
queen
p1122
(dp1123
g1036
g173
sg1037
g260
sg203
g163
sbsg219
(ipieces
king
p1124
(dp1125
g1036
g171
sg1037
g928
sg203
(I101
I8
tp1126
sg1038
I00
sbssb.