(iboard
board
p0
(dp1
S'moves'
p2
(lp3
(imove
move
p4
(dp5
S'start'
p6
(I101
I2
tp7
sS'end'
p8
(I101
I4
tp9
sS'type'
p10
S'normal'
p11
sba(imove
move
p12
(dp13
g6
(I101
I7
tp14
sg8
(I101
I5
tp15
sg10
g11
sba(imove
move
p16
(dp17
g6
(I103
I1
tp18
sg8
(I102
I3
tp19
sg10
g11
sba(imove
move
p20
(dp21
g6
(I97
I7
tp22
sg8
(I97
I5
tp23
sg10
g11
sba(imove
move
p24
(dp25
S'start'
p26
(I101
I2
tp27
sS'end'
p28
(I101
I4
tp29
sS'type'
p30
S'normal'
p31
sba(imove
move
p32
(dp33
g26
(I101
I7
tp34
sg28
(I101
I5
tp35
sg30
g31
sba(imove
move
p36
(dp37
g26
(I103
I1
tp38
sg28
(I102
I3
tp39
sg30
g31
sba(imove
move
p40
(dp41
g26
(I102
I7
tp42
sg28
(I102
I5
tp43
sg30
g31
sba(imove
move
p44
(dp45
g26
(I101
I4
tp46
sg28
(I102
I5
tp47
sg30
g31
sba(imove
move
p48
(dp49
g26
(I103
I7
tp50
sg28
(I103
I6
tp51
sg30
g31
sba(imove
move
p52
(dp53
g26
(I102
I5
tp54
sg28
(I103
I6
tp55
sg30
g31
sba(imove
move
p56
(dp57
g26
(I102
I8
tp58
sg28
(I101
I7
tp59
sg30
g31
sba(imove
move
p60
(dp61
g26
(I103
I6
tp62
sg28
(I104
I7
tp63
sg30
g31
sba(imove
move
p64
(dp65
g26
(I100
I7
tp66
sg28
(I100
I6
tp67
sg30
g31
sba(imove
move
p68
(dp69
g26
(I104
I7
tp70
sg28
(I103
I8
tp71
sg30
g31
sba(imove
move
p72
(dp73
S'start'
p74
(I101
I2
tp75
sS'end'
p76
(I101
I4
tp77
sS'type'
p78
S'normal'
p79
sba(imove
move
p80
(dp81
g74
(I102
I7
tp82
sg76
(I102
I5
tp83
sg78
g79
sba(imove
move
p84
(dp85
g74
(I101
I4
tp86
sg76
(I102
I5
tp87
sg78
g79
sba(imove
move
p88
(dp89
g74
(I103
I7
tp90
sg76
(I103
I6
tp91
sg78
g79
sba(imove
move
p92
(dp93
g74
(I102
I5
tp94
sg76
(I103
I6
tp95
sg78
g79
sba(imove
move
p96
(dp97
g74
(I101
I7
tp98
sg76
(I101
I6
tp99
sg78
g79
sba(imove
move
p100
(dp101
g74
(I103
I6
tp102
sg76
(I104
I7
tp103
sg78
g79
sba(imove
move
p104
(dp105
g74
(I100
I7
tp106
sg76
(I100
I6
tp107
sg78
g79
sba(imove
move
p108
(dp109
g74
(I104
I7
tp110
sg76
(I103
I8
tp111
sg78
g79
sba(imove
move
p112
(dp113
S'start'
p114
(I101
I2
tp115
sS'end'
p116
(I101
I4
tp117
sS'type'
p118
S'normal'
p119
sba(imove
move
p120
(dp121
g114
(I102
I7
tp122
sg116
(I102
I5
tp123
sg118
g119
sba(imove
move
p124
(dp125
g114
(I101
I4
tp126
sg116
(I102
I5
tp127
sg118
g119
sba(imove
move
p128
(dp129
g114
(I103
I7
tp130
sg116
(I103
I6
tp131
sg118
g119
sba(imove
move
p132
(dp133
g114
(I102
I5
tp134
sg116
(I103
I6
tp135
sg118
g119
sba(imove
move
p136
(dp137
g114
(I101
I7
tp138
sg116
(I101
I6
tp139
sg118
g119
sba(imove
move
p140
(dp141
g114
(I103
I6
tp142
sg116
(I104
I7
tp143
sg118
g119
sba(imove
move
p144
(dp145
g114
(I102
I8
tp146
sg116
(I101
I7
tp147
sg118
g119
sba(imove
move
p148
(dp149
S'start'
p150
(I101
I2
tp151
sS'end'
p152
(I101
I4
tp153
sS'type'
p154
S'normal'
p155
sba(imove
move
p156
(dp157
g150
(I100
I7
tp158
sg152
(I100
I5
tp159
sg154
g155
sba(imove
move
p160
(dp161
g150
(I101
I4
tp162
sg152
(I100
I5
tp163
sg154
g155
sba(imove
move
p164
(dp165
g150
(I99
I7
tp166
sg152
(I99
I6
tp167
sg154
g155
sba(imove
move
p168
(dp169
g150
(I100
I5
tp170
sg152
(I99
I6
tp171
sg154
g155
sba(imove
move
p172
(dp173
g150
(I100
I8
tp174
sg152
(I100
I2
tp175
sg154
g155
sba(imove
move
p176
(dp177
S'start'
p178
(I99
I1
tp179
sS'end'
p180
(I100
I2
tp181
sS'type'
p182
S'normal'
p183
sba(imove
move
p184
(dp185
g178
(I101
I7
tp186
sg180
(I101
I6
tp187
sg182
g183
sba(imove
move
p188
(dp189
g178
(I99
I2
tp190
sg180
(I99
I4
tp191
sg182
g183
sba(imove
move
p192
(dp193
g178
(I98
I7
tp194
sg180
(I98
I5
tp195
sg182
g183
sba(imove
move
p196
(dp197
g178
(I98
I2
tp198
sg180
(I98
I3
tp199
sg182
g183
sba(imove
move
p200
(dp201
g178
(I98
I5
tp202
sg180
(I99
I4
tp203
sg182
g183
sba(imove
move
p204
(dp205
g178
(I99
I6
tp206
sg180
(I99
I7
tp207
sg182
g183
sba(imove
move
p208
(dp209
g178
(I99
I4
tp210
sg180
(I98
I3
tp211
sg182
g183
sba(imove
move
p212
(dp213
g178
(I99
I7
tp214
sg180
(I98
I8
tp215
sg182
g183
sba(imove
move
p216
(dp217
g178
(I97
I8
tp218
sg180
(I98
I8
tp219
sg182
g183
sba(imove
move
p220
(dp221
g178
(I100
I2
tp222
sg180
(I103
I5
tp223
sg182
g183
sba(imove
move
p224
(dp225
g178
(I98
I3
tp226
sg180
(I97
I2
tp227
sg182
g183
sba(imove
move
p228
(dp229
g178
(I97
I1
tp230
sg180
(I97
I2
tp231
sg182
g183
sba(imove
move
p232
(dp233
g178
(I98
I8
tp234
sg180
(I98
I1
tp235
sg182
g183
sba(imove
move
p236
(dp237
g178
(I97
I2
tp238
sg180
(I97
I7
tp239
sg182
g183
sba(imove
move
p240
(dp241
g178
(I98
I1
tp242
sg180
(I100
I1
tp243
sg182
g183
sba(imove
move
p244
(dp245
g178
(I101
I1
tp246
sg180
(I100
I1
tp247
sg182
g183
sba(imove
move
p248
(dp249
g178
(I102
I8
tp250
sg180
(I97
I3
tp251
sg182
g183
sba(imove
move
p252
(dp253
g178
(I102
I1
tp254
sg180
(I99
I4
tp255
sg182
g183
sba(imove
move
p256
(dp257
g178
(I103
I8
tp258
sg180
(I102
I6
tp259
sg182
g183
sba(imove
move
p260
(dp261
g178
(I99
I4
tp262
sg180
(I101
I6
tp263
sg182
g183
sba(imove
move
p264
(dp265
g178
(I99
I8
tp266
sg180
(I101
I6
tp267
sg182
g183
sba(imove
move
p268
(dp269
g178
(I103
I1
tp270
sg180
(I102
I3
tp271
sg182
g183
sba(imove
move
p272
(dp273
g178
(I101
I8
tp274
sg180
(I103
I8
tp275
sg182
S'castle'
p276
sba(imove
move
p277
(dp278
g178
(I97
I7
tp279
sg180
(I97
I8
tp280
sg182
g183
sba(imove
move
p281
(dp282
g178
(I101
I6
tp283
sg180
(I100
I5
tp284
sg182
g183
sba(imove
move
p285
(dp286
g178
(I102
I3
tp287
sg180
(I101
I5
tp288
sg182
g183
sba(imove
move
p289
(dp290
g178
(I100
I5
tp291
sg180
(I103
I2
tp292
sg182
g183
sba(imove
move
p293
(dp294
g178
(I101
I5
tp295
sg180
(I102
I7
tp296
sg182
g183
sba(imove
move
p297
(dp298
g178
(I102
I6
tp299
sg180
(I101
I4
tp300
sg182
g183
sba(imove
move
p301
(dp302
g178
(I102
I2
tp303
sg180
(I102
I3
tp304
sg182
g183
sba(imove
move
p305
(dp306
g178
(I101
I4
tp307
sg180
(I103
I5
tp308
sg182
g183
sba(imove
move
p309
(dp310
g178
(I104
I2
tp311
sg180
(I104
I3
tp312
sg182
g183
sba(imove
move
p313
(dp314
S'start'
p315
(I103
I5
tp316
sS'end'
p317
(I102
I7
tp318
sS'type'
p319
S'normal'
p320
sba(imove
move
p321
(dp322
g315
(I104
I3
tp323
sg317
(I104
I4
tp324
sg319
g320
sba(imove
move
p325
(dp326
g315
(I103
I2
tp327
sg317
(I102
I3
tp328
sg319
g320
sba(imove
move
p329
(dp330
g315
(I100
I1
tp331
sg317
(I99
I2
tp332
sg319
g320
sba(imove
move
p333
(dp334
g315
(I102
I7
tp335
sg317
(I103
I5
tp336
sg319
g320
sba(imove
move
p337
(dp338
g315
(I104
I1
tp339
sg317
(I102
I1
tp340
sg319
g320
sba(imove
move
p341
(dp342
g315
(I104
I7
tp343
sg317
(I104
I6
tp344
sg319
g320
sba(imove
move
p345
(dp346
g315
(I102
I1
tp347
sg317
(I102
I3
tp348
sg319
g320
sba(imove
move
p349
(dp350
g315
(I103
I5
tp351
sg317
(I102
I3
tp352
sg319
g320
sba(imove
move
p353
(dp354
g315
(I99
I2
tp355
sg317
(I100
I1
tp356
sg319
g320
sba(imove
move
p357
(dp358
g315
(I102
I3
tp359
sg317
(I103
I5
tp360
sg319
g320
sba(imove
move
p361
(dp362
g315
(I104
I4
tp363
sg317
(I103
I5
tp364
sg319
g320
sba(imove
move
p365
(dp366
g315
(I102
I8
tp367
sg317
(I99
I8
tp368
sg319
g320
sba(imove
move
p369
(dp370
g315
(I103
I5
tp371
sg317
(I104
I6
tp372
sg319
g320
sba(imove
move
p373
(dp374
g315
(I103
I7
tp375
sg317
(I104
I6
tp376
sg319
g320
sba(imove
move
p377
(dp378
g315
(I97
I8
tp379
sg317
(I99
I8
tp380
sg319
g320
sba(imove
move
p381
(dp382
g315
(I103
I8
tp383
sg317
(I102
I7
tp384
sg319
g320
sba(imove
move
p385
(dp386
g315
(I99
I8
tp387
sg317
(I104
I8
tp388
sg319
g320
sba(imove
move
p389
(dp390
g315
(I97
I3
tp391
sg317
(I100
I6
tp392
sg319
g320
sba(imove
move
p393
(dp394
g315
(I100
I1
tp395
sg317
(I99
I2
tp396
sg319
g320
sba(imove
move
p397
(dp398
g315
(I102
I7
tp399
sg317
(I101
I7
tp400
sg319
g320
sba(imove
move
p401
(dp402
g315
(I99
I2
tp403
sg317
(I99
I3
tp404
sg319
g320
sba(imove
move
p405
(dp406
g315
(I100
I6
tp407
sg317
(I98
I8
tp408
sg319
g320
sba(imove
move
p409
(dp410
g315
(I99
I3
tp411
sg317
(I99
I4
tp412
sg319
g320
sba(imove
move
p413
(dp414
g315
(I101
I7
tp415
sg317
(I100
I7
tp416
sg319
g320
sba(imove
move
p417
(dp418
g315
(I99
I4
tp419
sg317
(I99
I5
tp420
sg319
g320
sba(imove
move
p421
(dp422
g315
(I100
I7
tp423
sg317
(I99
I7
tp424
sg319
g320
sba(imove
move
p425
(dp426
g315
(I104
I8
tp427
sg317
(I104
I6
tp428
sg319
g320
sba(imove
move
p429
(dp430
g315
(I99
I7
tp431
sg317
(I98
I7
tp432
sg319
g320
sba(imove
move
p433
(dp434
g315
(I104
I6
tp435
sg317
(I104
I8
tp436
sg319
g320
sba(imove
move
p437
(dp438
g315
(I98
I7
tp439
sg317
(I97
I8
tp440
sg319
g320
sba(imove
move
p441
(dp442
S'start'
p443
(I99
I5
tp444
sS'end'
p445
(I98
I6
tp446
sS'type'
p447
S'normal'
p448
sba(imove
move
p449
(dp450
S'start'
p451
(I101
I2
tp452
sS'end'
p453
(I101
I4
tp454
sS'type'
p455
S'normal'
p456
sba(imove
move
p457
(dp458
g451
(I100
I7
tp459
sg453
(I100
I5
tp460
sg455
g456
sba(imove
move
p461
(dp462
g451
(I101
I4
tp463
sg453
(I100
I5
tp464
sg455
g456
sba(imove
move
p465
(dp466
g451
(I99
I7
tp467
sg453
(I99
I6
tp468
sg455
g456
sba(imove
move
p469
(dp470
g451
(I100
I5
tp471
sg453
(I99
I6
tp472
sg455
g456
sba(imove
move
p473
(dp474
g451
(I98
I8
tp475
sg453
(I99
I6
tp476
sg455
g456
sba(imove
move
p477
(dp478
g451
(I100
I2
tp479
sg453
(I100
I4
tp480
sg455
g456
sba(imove
move
p481
(dp482
g451
(I99
I6
tp483
sg453
(I100
I4
tp484
sg455
g456
sba(imove
move
p485
(dp486
g451
(I100
I1
tp487
sg453
(I100
I4
tp488
sg455
g456
sba(imove
move
p489
(dp490
g451
(I100
I8
tp491
sg453
(I100
I4
tp492
sg455
g456
sba(imove
move
p493
(dp494
g451
(I99
I2
tp495
sg453
(I99
I3
tp496
sg455
g456
sba(imove
move
p497
(dp498
g451
(I100
I4
tp499
sg453
(I99
I3
tp500
sg455
g456
sba(imove
move
p501
(dp502
g451
(I98
I2
tp503
sg453
(I99
I3
tp504
sg455
g456
sba(imove
move
p505
(dp506
g451
(I99
I8
tp507
sg453
(I102
I5
tp508
sg455
g456
sba(imove
move
p509
(dp510
g451
(I99
I3
tp511
sg453
(I99
I4
tp512
sg455
g456
sba(imove
move
p513
(dp514
g451
(I98
I7
tp515
sg453
(I98
I5
tp516
sg455
g456
sba(imove
move
p517
(dp518
g451
(I99
I4
tp519
sg453
(I98
I5
tp520
sg455
g456
sba(imove
move
p521
(dp522
g451
(I97
I7
tp523
sg453
(I97
I6
tp524
sg455
g456
sba(imove
move
p525
(dp526
g451
(I98
I5
tp527
sg453
(I97
I6
tp528
sg455
g456
sba(imove
move
p529
(dp530
g451
(I97
I8
tp531
sg453
(I97
I6
tp532
sg455
g456
sba(imove
move
p533
(dp534
g451
(I98
I1
tp535
sg453
(I99
I3
tp536
sg455
g456
sba(imove
move
p537
(dp538
g451
(I97
I6
tp539
sg453
(I97
I2
tp540
sg455
g456
sba(imove
move
p541
(dp542
g451
(I97
I1
tp543
sg453
(I97
I2
tp544
sg455
g456
sba(imove
move
p545
(dp546
g451
(I103
I8
tp547
sg453
(I102
I6
tp548
sg455
g456
sba(imove
move
p549
(dp550
g451
(I99
I1
tp551
sg453
(I104
I6
tp552
sg455
g456
sba(imove
move
p553
(dp554
g451
(I103
I7
tp555
sg453
(I104
I6
tp556
sg455
g456
sba(imove
move
p557
(dp558
g451
(I103
I2
tp559
sg453
(I103
I4
tp560
sg455
g456
sba(imove
move
p561
(dp562
g451
(I102
I6
tp563
sg453
(I101
I4
tp564
sg455
g456
sba(imove
move
p565
(dp566
g451
(I103
I4
tp567
sg453
(I102
I5
tp568
sg455
g456
sba(imove
move
p569
(dp570
g451
(I101
I4
tp571
sg453
(I102
I2
tp572
sg455
g456
sba(imove
move
p573
(dp574
g451
(I102
I1
tp575
sg453
(I104
I3
tp576
sg455
g456
sba(imove
move
p577
(dp578
g451
(I101
I7
tp579
sg453
(I101
I6
tp580
sg455
g456
sba(imove
move
p581
(dp582
g451
(I102
I5
tp583
sg453
(I101
I6
tp584
sg455
g456
sba(imove
move
p585
(dp586
g451
(I102
I2
tp587
sg453
(I104
I1
tp588
sg455
g456
sba(imove
move
p589
(dp590
g451
(I101
I6
tp591
sg453
(I102
I7
tp592
sg455
g456
sba(imove
move
p593
(dp594
g451
(I101
I8
tp595
sg453
(I100
I8
tp596
sg455
g456
sba(imove
move
p597
(dp598
g451
(I104
I3
tp599
sg453
(I103
I2
tp600
sg455
g456
sba(imove
move
p601
(dp602
g451
(I104
I8
tp603
sg453
(I103
I8
tp604
sg455
g456
sba(imove
move
p605
(dp606
g451
(I102
I7
tp607
sg453
(I103
I8
tp608
sg455
g456
sba(imove
move
p609
(dp610
g451
(I104
I6
tp611
sg453
(I104
I5
tp612
sg455
g456
sba(imove
move
p613
(dp614
S'start'
p615
(I103
I2
tp616
sS'end'
p617
(I104
I1
tp618
sS'type'
p619
S'normal'
p620
sba(imove
move
p621
(dp622
g615
(I100
I8
tp623
sg617
(I99
I8
tp624
sg619
g620
sba(imove
move
p625
(dp626
g615
(I99
I3
tp627
sg617
(I101
I4
tp628
sg619
g620
sba(imove
move
p629
(dp630
g615
(I104
I5
tp631
sg617
(I104
I4
tp632
sg619
g620
sba(imove
move
p633
(dp634
g615
(I101
I4
tp635
sg617
(I103
I5
tp636
sg619
g620
sba(imove
move
p637
(dp638
g615
(I104
I7
tp639
sg617
(I104
I6
tp640
sg619
g620
sba(imove
move
p641
(dp642
g615
(I103
I1
tp643
sg617
(I102
I3
tp644
sg619
g620
sba(imove
move
p645
(dp646
g615
(I104
I6
tp647
sg617
(I103
I5
tp648
sg619
g620
sba(imove
move
p649
(dp650
g615
(I103
I8
tp651
sg617
(I104
I8
tp652
sg619
g620
sba(imove
move
p653
(dp654
g615
(I103
I5
tp655
sg617
(I103
I4
tp656
sg619
g620
sba(imove
move
p657
(dp658
g615
(I104
I8
tp659
sg617
(I104
I7
tp660
sg619
g620
sba(imove
move
p661
(dp662
g615
(I103
I4
tp663
sg617
(I102
I3
tp664
sg619
g620
sba(imove
move
p665
(dp666
g615
(I104
I1
tp667
sg617
(I102
I3
tp668
sg619
g620
sba(imove
move
p669
(dp670
g615
(I99
I8
tp671
sg617
(I98
I8
tp672
sg619
g620
sba(imove
move
p673
(dp674
g615
(I102
I3
tp675
sg617
(I103
I4
tp676
sg619
g620
sba(imove
move
p677
(dp678
g615
(I104
I4
tp679
sg617
(I104
I3
tp680
sg619
g620
sba(imove
move
p681
(dp682
g615
(I103
I4
tp683
sg617
(I104
I3
tp684
sg619
g620
sba(imove
move
p685
(dp686
g615
(I102
I8
tp687
sg617
(I100
I6
tp688
sg619
g620
sba(imove
move
p689
(dp690
g615
(I104
I3
tp691
sg617
(I99
I8
tp692
sg619
g620
sba(imove
move
p693
(dp694
g615
(I100
I6
tp695
sg617
(I104
I2
tp696
sg619
g620
sba(imove
move
p697
(dp698
g615
(I101
I1
tp699
sg617
(I101
I2
tp700
sg619
g620
sba(imove
move
p701
(dp702
g615
(I98
I8
tp703
sg617
(I99
I8
tp704
sg619
g620
sba(imove
move
p705
(dp706
g615
(I97
I2
tp707
sg617
(I97
I7
tp708
sg619
g620
sba(imove
move
p709
(dp710
g615
(I99
I8
tp711
sg617
(I98
I8
tp712
sg619
g620
sba(imove
move
p713
(dp714
g615
(I104
I7
tp715
sg617
(I104
I8
tp716
sg619
g620
sba(imove
move
p717
(dp718
g615
(I98
I8
tp719
sg617
(I97
I7
tp720
sg619
g620
sba(imove
move
p721
(dp722
g615
(I101
I2
tp723
sg617
(I100
I3
tp724
sg619
g620
sba(imove
move
p725
(dp726
g615
(I104
I2
tp727
sg617
(I98
I8
tp728
sg619
g620
sba(imove
move
p729
(dp730
g615
(I100
I3
tp731
sg617
(I99
I4
tp732
sg619
g620
sba(imove
move
p733
(dp734
g615
(I97
I7
tp735
sg617
(I97
I8
tp736
sg619
g620
sba(imove
move
p737
(dp738
g615
(I99
I4
tp739
sg617
(I99
I5
tp740
sg619
g620
sba(imove
move
p741
(dp742
g615
(I97
I8
tp743
sg617
(I97
I7
tp744
sg619
g620
sba(imove
move
p745
(dp746
g615
(I99
I5
tp747
sg617
(I98
I5
tp748
sg619
g620
sba(imove
move
p749
(dp750
g615
(I97
I7
tp751
sg617
(I97
I8
tp752
sg619
g620
sba(imove
move
p753
(dp754
S'start'
p755
(I97
I2
tp756
sS'end'
p757
(I97
I3
tp758
sS'type'
p759
S'normal'
p760
sba(imove
move
p761
(dp762
g755
(I97
I2
tp763
sg757
(I97
I4
tp764
sg759
g760
sba(imove
move
p765
(dp766
g755
(I97
I2
tp767
sg757
(I97
I3
tp768
sg759
g760
sba(imove
move
p769
(dp770
g755
(I97
I2
tp771
sg757
(I97
I4
tp772
sg759
g760
sba(imove
move
p773
(dp774
g755
(I97
I2
tp775
sg757
(I97
I3
tp776
sg759
g760
sba(imove
move
p777
(dp778
g755
(I97
I2
tp779
sg757
(I97
I4
tp780
sg759
g760
sba(imove
move
p781
(dp782
g755
(I97
I2
tp783
sg757
(I97
I3
tp784
sg759
g760
sba(imove
move
p785
(dp786
g755
(I97
I2
tp787
sg757
(I97
I4
tp788
sg759
g760
sba(imove
move
p789
(dp790
g755
(I97
I2
tp791
sg757
(I97
I3
tp792
sg759
g760
sba(imove
move
p793
(dp794
g755
(I97
I2
tp795
sg757
(I97
I4
tp796
sg759
g760
sba(imove
move
p797
(dp798
g755
(I97
I2
tp799
sg757
(I97
I3
tp800
sg759
g760
sba(imove
move
p801
(dp802
g755
(I97
I2
tp803
sg757
(I97
I4
tp804
sg759
g760
sba(imove
move
p805
(dp806
g755
(I97
I2
tp807
sg757
(I97
I3
tp808
sg759
g760
sba(imove
move
p809
(dp810
g755
(I97
I2
tp811
sg757
(I97
I4
tp812
sg759
g760
sba(imove
move
p813
(dp814
g755
(I97
I2
tp815
sg757
(I97
I3
tp816
sg759
g760
sba(imove
move
p817
(dp818
g755
(I97
I2
tp819
sg757
(I97
I4
tp820
sg759
g760
sba(imove
move
p821
(dp822
g755
(I97
I2
tp823
sg757
(I97
I3
tp824
sg759
g760
sba(imove
move
p825
(dp826
g755
(I97
I2
tp827
sg757
(I97
I4
tp828
sg759
g760
sba(imove
move
p829
(dp830
g755
(I97
I2
tp831
sg757
(I97
I3
tp832
sg759
g760
sba(imove
move
p833
(dp834
g755
(I97
I2
tp835
sg757
(I97
I4
tp836
sg759
g760
sba(imove
move
p837
(dp838
g755
(I97
I2
tp839
sg757
(I97
I3
tp840
sg759
g760
sba(imove
move
p841
(dp842
g755
(I97
I2
tp843
sg757
(I97
I4
tp844
sg759
g760
sba(imove
move
p845
(dp846
g755
(I97
I2
tp847
sg757
(I97
I3
tp848
sg759
g760
sba(imove
move
p849
(dp850
g755
(I97
I2
tp851
sg757
(I97
I4
tp852
sg759
g760
sba(imove
move
p853
(dp854
g755
(I97
I2
tp855
sg757
(I97
I3
tp856
sg759
g760
sba(imove
move
p857
(dp858
g755
(I97
I2
tp859
sg757
(I97
I4
tp860
sg759
g760
sba(imove
move
p861
(dp862
g755
(I97
I2
tp863
sg757
(I97
I3
tp864
sg759
g760
sba(imove
move
p865
(dp866
g755
(I97
I2
tp867
sg757
(I97
I4
tp868
sg759
g760
sba(imove
move
p869
(dp870
g755
(I97
I2
tp871
sg757
(I97
I3
tp872
sg759
g760
sba(imove
move
p873
(dp874
g755
(I97
I2
tp875
sg757
(I97
I4
tp876
sg759
g760
sba(imove
move
p877
(dp878
g755
(I97
I2
tp879
sg757
(I97
I3
tp880
sg759
g760
sba(imove
move
p881
(dp882
g755
(I97
I2
tp883
sg757
(I97
I4
tp884
sg759
g760
sba(imove
move
p885
(dp886
g755
(I97
I2
tp887
sg757
(I97
I3
tp888
sg759
g760
sba(imove
move
p889
(dp890
g755
(I97
I2
tp891
sg757
(I97
I4
tp892
sg759
g760
sba(imove
move
p893
(dp894
g755
(I97
I2
tp895
sg757
(I97
I3
tp896
sg759
g760
sba(imove
move
p897
(dp898
g755
(I97
I2
tp899
sg757
(I97
I4
tp900
sg759
g760
sba(imove
move
p901
(dp902
g755
(I97
I2
tp903
sg757
(I97
I3
tp904
sg759
g760
sba(imove
move
p905
(dp906
g755
(I97
I2
tp907
sg757
(I97
I4
tp908
sg759
g760
sba(imove
move
p909
(dp910
g755
(I97
I2
tp911
sg757
(I97
I3
tp912
sg759
g760
sba(imove
move
p913
(dp914
g755
(I97
I2
tp915
sg757
(I97
I4
tp916
sg759
g760
sba(imove
move
p917
(dp918
g755
(I97
I2
tp919
sg757
(I97
I3
tp920
sg759
g760
sba(imove
move
p921
(dp922
g755
(I97
I2
tp923
sg757
(I97
I4
tp924
sg759
g760
sba(imove
move
p925
(dp926
g755
(I97
I2
tp927
sg757
(I97
I3
tp928
sg759
g760
sba(imove
move
p929
(dp930
g755
(I97
I2
tp931
sg757
(I97
I4
tp932
sg759
g760
sba(imove
move
p933
(dp934
g755
(I97
I2
tp935
sg757
(I97
I3
tp936
sg759
g760
sba(imove
move
p937
(dp938
g755
(I97
I2
tp939
sg757
(I97
I4
tp940
sg759
g760
sba(imove
move
p941
(dp942
g755
(I97
I2
tp943
sg757
(I97
I3
tp944
sg759
g760
sba(imove
move
p945
(dp946
g755
(I97
I2
tp947
sg757
(I97
I4
tp948
sg759
g760
sba(imove
move
p949
(dp950
g755
(I97
I2
tp951
sg757
(I97
I3
tp952
sg759
g760
sba(imove
move
p953
(dp954
g755
(I97
I2
tp955
sg757
(I97
I4
tp956
sg759
g760
sba(imove
move
p957
(dp958
g755
(I97
I2
tp959
sg757
(I97
I3
tp960
sg759
g760
sba(imove
move
p961
(dp962
g755
(I97
I2
tp963
sg757
(I97
I4
tp964
sg759
g760
sba(imove
move
p965
(dp966
g755
(I97
I2
tp967
sg757
(I97
I3
tp968
sg759
g760
sba(imove
move
p969
(dp970
g755
(I97
I2
tp971
sg757
(I97
I4
tp972
sg759
g760
sba(imove
move
p973
(dp974
g755
(I97
I2
tp975
sg757
(I97
I3
tp976
sg759
g760
sba(imove
move
p977
(dp978
g755
(I97
I2
tp979
sg757
(I97
I4
tp980
sg759
g760
sba(imove
move
p981
(dp982
g755
(I97
I2
tp983
sg757
(I97
I3
tp984
sg759
g760
sba(imove
move
p985
(dp986
g755
(I97
I2
tp987
sg757
(I97
I4
tp988
sg759
g760
sba(imove
move
p989
(dp990
g755
(I97
I2
tp991
sg757
(I97
I3
tp992
sg759
g760
sba(imove
move
p993
(dp994
g755
(I97
I2
tp995
sg757
(I97
I4
tp996
sg759
g760
sba(imove
move
p997
(dp998
g755
(I97
I2
tp999
sg757
(I97
I3
tp1000
sg759
g760
sba(imove
move
p1001
(dp1002
g755
(I97
I2
tp1003
sg757
(I97
I4
tp1004
sg759
g760
sba(imove
move
p1005
(dp1006
g755
(I97
I2
tp1007
sg757
(I97
I3
tp1008
sg759
g760
sba(imove
move
p1009
(dp1010
g755
(I97
I2
tp1011
sg757
(I97
I4
tp1012
sg759
g760
sba(imove
move
p1013
(dp1014
g755
(I97
I2
tp1015
sg757
(I97
I3
tp1016
sg759
g760
sba(imove
move
p1017
(dp1018
g755
(I97
I2
tp1019
sg757
(I97
I4
tp1020
sg759
g760
sba(imove
move
p1021
(dp1022
g755
(I97
I2
tp1023
sg757
(I97
I3
tp1024
sg759
g760
sba(imove
move
p1025
(dp1026
g755
(I97
I2
tp1027
sg757
(I97
I4
tp1028
sg759
g760
sba(imove
move
p1029
(dp1030
g755
(I97
I2
tp1031
sg757
(I97
I3
tp1032
sg759
g760
sba(imove
move
p1033
(dp1034
g755
(I97
I2
tp1035
sg757
(I97
I4
tp1036
sg759
g760
sba(imove
move
p1037
(dp1038
g755
(I97
I2
tp1039
sg757
(I97
I3
tp1040
sg759
g760
sba(imove
move
p1041
(dp1042
g755
(I97
I2
tp1043
sg757
(I97
I4
tp1044
sg759
g760
sba(imove
move
p1045
(dp1046
g755
(I97
I2
tp1047
sg757
(I97
I3
tp1048
sg759
g760
sba(imove
move
p1049
(dp1050
g755
(I97
I2
tp1051
sg757
(I97
I4
tp1052
sg759
g760
sba(imove
move
p1053
(dp1054
g755
(I97
I2
tp1055
sg757
(I97
I3
tp1056
sg759
g760
sba(imove
move
p1057
(dp1058
g755
(I97
I2
tp1059
sg757
(I97
I4
tp1060
sg759
g760
sba(imove
move
p1061
(dp1062
g755
(I97
I2
tp1063
sg757
(I97
I3
tp1064
sg759
g760
sba(imove
move
p1065
(dp1066
g755
(I97
I2
tp1067
sg757
(I97
I4
tp1068
sg759
g760
sba(imove
move
p1069
(dp1070
g755
(I97
I2
tp1071
sg757
(I97
I3
tp1072
sg759
g760
sba(imove
move
p1073
(dp1074
g755
(I97
I2
tp1075
sg757
(I97
I4
tp1076
sg759
g760
sba(imove
move
p1077
(dp1078
g755
(I97
I2
tp1079
sg757
(I97
I3
tp1080
sg759
g760
sba(imove
move
p1081
(dp1082
g755
(I97
I2
tp1083
sg757
(I97
I4
tp1084
sg759
g760
sba(imove
move
p1085
(dp1086
g755
(I97
I2
tp1087
sg757
(I97
I3
tp1088
sg759
g760
sba(imove
move
p1089
(dp1090
g755
(I97
I2
tp1091
sg757
(I97
I4
tp1092
sg759
g760
sba(imove
move
p1093
(dp1094
g755
(I97
I2
tp1095
sg757
(I97
I3
tp1096
sg759
g760
sba(imove
move
p1097
(dp1098
g755
(I97
I2
tp1099
sg757
(I97
I4
tp1100
sg759
g760
sba(imove
move
p1101
(dp1102
g755
(I97
I2
tp1103
sg757
(I97
I3
tp1104
sg759
g760
sba(imove
move
p1105
(dp1106
g755
(I97
I2
tp1107
sg757
(I97
I4
tp1108
sg759
g760
sba(imove
move
p1109
(dp1110
g755
(I97
I2
tp1111
sg757
(I97
I3
tp1112
sg759
g760
sba(imove
move
p1113
(dp1114
g755
(I97
I2
tp1115
sg757
(I97
I4
tp1116
sg759
g760
sba(imove
move
p1117
(dp1118
g755
(I97
I2
tp1119
sg757
(I97
I3
tp1120
sg759
g760
sba(imove
move
p1121
(dp1122
g755
(I97
I2
tp1123
sg757
(I97
I4
tp1124
sg759
g760
sba(imove
move
p1125
(dp1126
g755
(I97
I2
tp1127
sg757
(I97
I3
tp1128
sg759
g760
sba(imove
move
p1129
(dp1130
g755
(I97
I2
tp1131
sg757
(I97
I4
tp1132
sg759
g760
sba(imove
move
p1133
(dp1134
g755
(I97
I2
tp1135
sg757
(I97
I3
tp1136
sg759
g760
sba(imove
move
p1137
(dp1138
g755
(I97
I2
tp1139
sg757
(I97
I4
tp1140
sg759
g760
sba(imove
move
p1141
(dp1142
g755
(I97
I2
tp1143
sg757
(I97
I3
tp1144
sg759
g760
sba(imove
move
p1145
(dp1146
g755
(I97
I2
tp1147
sg757
(I97
I4
tp1148
sg759
g760
sba(imove
move
p1149
(dp1150
g755
(I97
I2
tp1151
sg757
(I97
I3
tp1152
sg759
g760
sba(imove
move
p1153
(dp1154
g755
(I97
I2
tp1155
sg757
(I97
I4
tp1156
sg759
g760
sba(imove
move
p1157
(dp1158
g755
(I97
I2
tp1159
sg757
(I97
I3
tp1160
sg759
g760
sba(imove
move
p1161
(dp1162
g755
(I97
I2
tp1163
sg757
(I97
I4
tp1164
sg759
g760
sba(imove
move
p1165
(dp1166
g755
(I97
I2
tp1167
sg757
(I97
I3
tp1168
sg759
g760
sba(imove
move
p1169
(dp1170
g755
(I97
I2
tp1171
sg757
(I97
I4
tp1172
sg759
g760
sba(imove
move
p1173
(dp1174
g755
(I97
I2
tp1175
sg757
(I97
I3
tp1176
sg759
g760
sba(imove
move
p1177
(dp1178
g755
(I97
I2
tp1179
sg757
(I97
I4
tp1180
sg759
g760
sba(imove
move
p1181
(dp1182
g755
(I97
I2
tp1183
sg757
(I97
I3
tp1184
sg759
g760
sba(imove
move
p1185
(dp1186
g755
(I97
I2
tp1187
sg757
(I97
I4
tp1188
sg759
g760
sba(imove
move
p1189
(dp1190
g755
(I97
I2
tp1191
sg757
(I97
I3
tp1192
sg759
g760
sba(imove
move
p1193
(dp1194
g755
(I97
I2
tp1195
sg757
(I97
I4
tp1196
sg759
g760
sba(imove
move
p1197
(dp1198
g755
(I97
I2
tp1199
sg757
(I97
I3
tp1200
sg759
g760
sba(imove
move
p1201
(dp1202
g755
(I97
I2
tp1203
sg757
(I97
I4
tp1204
sg759
g760
sba(imove
move
p1205
(dp1206
g755
(I97
I2
tp1207
sg757
(I97
I3
tp1208
sg759
g760
sba(imove
move
p1209
(dp1210
g755
(I97
I2
tp1211
sg757
(I97
I4
tp1212
sg759
g760
sba(imove
move
p1213
(dp1214
g755
(I97
I2
tp1215
sg757
(I97
I3
tp1216
sg759
g760
sba(imove
move
p1217
(dp1218
g755
(I97
I2
tp1219
sg757
(I97
I4
tp1220
sg759
g760
sba(imove
move
p1221
(dp1222
g755
(I97
I2
tp1223
sg757
(I97
I3
tp1224
sg759
g760
sba(imove
move
p1225
(dp1226
g755
(I97
I2
tp1227
sg757
(I97
I4
tp1228
sg759
g760
sba(imove
move
p1229
(dp1230
g755
(I97
I2
tp1231
sg757
(I97
I3
tp1232
sg759
g760
sba(imove
move
p1233
(dp1234
g755
(I97
I2
tp1235
sg757
(I97
I4
tp1236
sg759
g760
sba(imove
move
p1237
(dp1238
g755
(I97
I2
tp1239
sg757
(I97
I3
tp1240
sg759
g760
sba(imove
move
p1241
(dp1242
g755
(I97
I2
tp1243
sg757
(I97
I4
tp1244
sg759
g760
sba(imove
move
p1245
(dp1246
g755
(I97
I2
tp1247
sg757
(I97
I3
tp1248
sg759
g760
sba(imove
move
p1249
(dp1250
g755
(I97
I2
tp1251
sg757
(I97
I4
tp1252
sg759
g760
sba(imove
move
p1253
(dp1254
g755
(I97
I2
tp1255
sg757
(I97
I3
tp1256
sg759
g760
sba(imove
move
p1257
(dp1258
g755
(I97
I2
tp1259
sg757
(I97
I4
tp1260
sg759
g760
sba(imove
move
p1261
(dp1262
g755
(I97
I2
tp1263
sg757
(I97
I3
tp1264
sg759
g760
sba(imove
move
p1265
(dp1266
g755
(I97
I2
tp1267
sg757
(I97
I4
tp1268
sg759
g760
sba(imove
move
p1269
(dp1270
g755
(I97
I2
tp1271
sg757
(I97
I3
tp1272
sg759
g760
sba(imove
move
p1273
(dp1274
g755
(I97
I2
tp1275
sg757
(I97
I4
tp1276
sg759
g760
sba(imove
move
p1277
(dp1278
g755
(I97
I2
tp1279
sg757
(I97
I3
tp1280
sg759
g760
sba(imove
move
p1281
(dp1282
g755
(I97
I2
tp1283
sg757
(I97
I4
tp1284
sg759
g760
sba(imove
move
p1285
(dp1286
g755
(I97
I2
tp1287
sg757
(I97
I3
tp1288
sg759
g760
sba(imove
move
p1289
(dp1290
g755
(I97
I2
tp1291
sg757
(I97
I4
tp1292
sg759
g760
sba(imove
move
p1293
(dp1294
g755
(I97
I2
tp1295
sg757
(I97
I3
tp1296
sg759
g760
sba(imove
move
p1297
(dp1298
g755
(I97
I2
tp1299
sg757
(I97
I4
tp1300
sg759
g760
sba(imove
move
p1301
(dp1302
g755
(I101
I2
tp1303
sg757
(I101
I3
tp1304
sg759
g760
sba(imove
move
p1305
(dp1306
g755
(I101
I2
tp1307
sg757
(I101
I4
tp1308
sg759
g760
sba(imove
move
p1309
(dp1310
g755
(I97
I2
tp1311
sg757
(I97
I3
tp1312
sg759
g760
sba(imove
move
p1313
(dp1314
g755
(I97
I2
tp1315
sg757
(I97
I4
tp1316
sg759
g760
sba(imove
move
p1317
(dp1318
g755
(I101
I2
tp1319
sg757
(I101
I3
tp1320
sg759
g760
sba(imove
move
p1321
(dp1322
g755
(I101
I2
tp1323
sg757
(I101
I4
tp1324
sg759
g760
sba(imove
move
p1325
(dp1326
g755
(I97
I2
tp1327
sg757
(I97
I3
tp1328
sg759
g760
sba(imove
move
p1329
(dp1330
g755
(I97
I2
tp1331
sg757
(I97
I4
tp1332
sg759
g760
sba(imove
move
p1333
(dp1334
g755
(I101
I2
tp1335
sg757
(I101
I3
tp1336
sg759
g760
sba(imove
move
p1337
(dp1338
g755
(I101
I2
tp1339
sg757
(I101
I4
tp1340
sg759
g760
sba(imove
move
p1341
(dp1342
g755
(I97
I2
tp1343
sg757
(I97
I3
tp1344
sg759
g760
sba(imove
move
p1345
(dp1346
g755
(I97
I2
tp1347
sg757
(I97
I4
tp1348
sg759
g760
sba(imove
move
p1349
(dp1350
g755
(I101
I2
tp1351
sg757
(I101
I3
tp1352
sg759
g760
sba(imove
move
p1353
(dp1354
g755
(I101
I2
tp1355
sg757
(I101
I4
tp1356
sg759
g760
sba(imove
move
p1357
(dp1358
g755
(I97
I2
tp1359
sg757
(I97
I3
tp1360
sg759
g760
sba(imove
move
p1361
(dp1362
g755
(I97
I2
tp1363
sg757
(I97
I4
tp1364
sg759
g760
sba(imove
move
p1365
(dp1366
g755
(I101
I2
tp1367
sg757
(I101
I3
tp1368
sg759
g760
sba(imove
move
p1369
(dp1370
g755
(I101
I2
tp1371
sg757
(I101
I4
tp1372
sg759
g760
sba(imove
move
p1373
(dp1374
g755
(I97
I2
tp1375
sg757
(I97
I3
tp1376
sg759
g760
sba(imove
move
p1377
(dp1378
g755
(I97
I2
tp1379
sg757
(I97
I4
tp1380
sg759
g760
sba(imove
move
p1381
(dp1382
g755
(I101
I2
tp1383
sg757
(I101
I3
tp1384
sg759
g760
sba(imove
move
p1385
(dp1386
g755
(I101
I2
tp1387
sg757
(I101
I4
tp1388
sg759
g760
sba(imove
move
p1389
(dp1390
g755
(I97
I2
tp1391
sg757
(I97
I3
tp1392
sg759
g760
sba(imove
move
p1393
(dp1394
g755
(I97
I2
tp1395
sg757
(I97
I4
tp1396
sg759
g760
sba(imove
move
p1397
(dp1398
g755
(I101
I2
tp1399
sg757
(I101
I3
tp1400
sg759
g760
sba(imove
move
p1401
(dp1402
g755
(I101
I2
tp1403
sg757
(I101
I4
tp1404
sg759
g760
sba(imove
move
p1405
(dp1406
g755
(I97
I2
tp1407
sg757
(I97
I3
tp1408
sg759
g760
sba(imove
move
p1409
(dp1410
g755
(I97
I2
tp1411
sg757
(I97
I4
tp1412
sg759
g760
sba(imove
move
p1413
(dp1414
g755
(I101
I2
tp1415
sg757
(I101
I3
tp1416
sg759
g760
sba(imove
move
p1417
(dp1418
g755
(I101
I2
tp1419
sg757
(I101
I4
tp1420
sg759
g760
sba(imove
move
p1421
(dp1422
g755
(I97
I2
tp1423
sg757
(I97
I3
tp1424
sg759
g760
sba(imove
move
p1425
(dp1426
g755
(I97
I2
tp1427
sg757
(I97
I4
tp1428
sg759
g760
sba(imove
move
p1429
(dp1430
g755
(I101
I2
tp1431
sg757
(I101
I3
tp1432
sg759
g760
sba(imove
move
p1433
(dp1434
g755
(I101
I2
tp1435
sg757
(I101
I4
tp1436
sg759
g760
sba(imove
move
p1437
(dp1438
g755
(I97
I2
tp1439
sg757
(I97
I3
tp1440
sg759
g760
sba(imove
move
p1441
(dp1442
g755
(I97
I2
tp1443
sg757
(I97
I4
tp1444
sg759
g760
sba(imove
move
p1445
(dp1446
g755
(I97
I2
tp1447
sg757
(I97
I3
tp1448
sg759
g760
sba(imove
move
p1449
(dp1450
g755
(I97
I2
tp1451
sg757
(I97
I4
tp1452
sg759
g760
sba(imove
move
p1453
(dp1454
g755
(I97
I2
tp1455
sg757
(I97
I3
tp1456
sg759
g760
sba(imove
move
p1457
(dp1458
g755
(I97
I2
tp1459
sg757
(I97
I4
tp1460
sg759
g760
sba(imove
move
p1461
(dp1462
g755
(I97
I2
tp1463
sg757
(I97
I3
tp1464
sg759
g760
sba(imove
move
p1465
(dp1466
g755
(I97
I2
tp1467
sg757
(I97
I4
tp1468
sg759
g760
sba(imove
move
p1469
(dp1470
g755
(I101
I2
tp1471
sg757
(I101
I4
tp1472
sg759
g760
sba(imove
move
p1473
(dp1474
g755
(I102
I7
tp1475
sg757
(I102
I6
tp1476
sg759
g760
sba(imove
move
p1477
(dp1478
g755
(I102
I7
tp1479
sg757
(I102
I5
tp1480
sg759
g760
sba(imove
move
p1481
(dp1482
g755
(I102
I7
tp1483
sg757
(I102
I6
tp1484
sg759
g760
sba(imove
move
p1485
(dp1486
g755
(I102
I7
tp1487
sg757
(I102
I5
tp1488
sg759
g760
sba(imove
move
p1489
(dp1490
g755
(I102
I7
tp1491
sg757
(I102
I6
tp1492
sg759
g760
sba(imove
move
p1493
(dp1494
g755
(I102
I7
tp1495
sg757
(I102
I5
tp1496
sg759
g760
sba(imove
move
p1497
(dp1498
g755
(I102
I7
tp1499
sg757
(I102
I6
tp1500
sg759
g760
sba(imove
move
p1501
(dp1502
g755
(I102
I7
tp1503
sg757
(I102
I5
tp1504
sg759
g760
sba(imove
move
p1505
(dp1506
g755
(I102
I7
tp1507
sg757
(I102
I6
tp1508
sg759
g760
sba(imove
move
p1509
(dp1510
g755
(I102
I7
tp1511
sg757
(I102
I5
tp1512
sg759
g760
sba(imove
move
p1513
(dp1514
g755
(I102
I7
tp1515
sg757
(I102
I6
tp1516
sg759
g760
sba(imove
move
p1517
(dp1518
g755
(I102
I7
tp1519
sg757
(I102
I5
tp1520
sg759
g760
sba(imove
move
p1521
(dp1522
g755
(I102
I7
tp1523
sg757
(I102
I6
tp1524
sg759
g760
sba(imove
move
p1525
(dp1526
g755
(I102
I7
tp1527
sg757
(I102
I5
tp1528
sg759
g760
sba(imove
move
p1529
(dp1530
g755
(I102
I7
tp1531
sg757
(I102
I6
tp1532
sg759
g760
sba(imove
move
p1533
(dp1534
g755
(I102
I7
tp1535
sg757
(I102
I5
tp1536
sg759
g760
sba(imove
move
p1537
(dp1538
g755
(I102
I7
tp1539
sg757
(I102
I6
tp1540
sg759
g760
sba(imove
move
p1541
(dp1542
g755
(I102
I7
tp1543
sg757
(I102
I5
tp1544
sg759
g760
sba(imove
move
p1545
(dp1546
g755
(I102
I7
tp1547
sg757
(I102
I6
tp1548
sg759
g760
sba(imove
move
p1549
(dp1550
g755
(I102
I7
tp1551
sg757
(I102
I5
tp1552
sg759
g760
sba(imove
move
p1553
(dp1554
g755
(I102
I7
tp1555
sg757
(I102
I6
tp1556
sg759
g760
sba(imove
move
p1557
(dp1558
g755
(I102
I7
tp1559
sg757
(I102
I5
tp1560
sg759
g760
sba(imove
move
p1561
(dp1562
g755
(I102
I7
tp1563
sg757
(I102
I6
tp1564
sg759
g760
sba(imove
move
p1565
(dp1566
g755
(I102
I7
tp1567
sg757
(I102
I5
tp1568
sg759
g760
sba(imove
move
p1569
(dp1570
g755
(I102
I7
tp1571
sg757
(I102
I6
tp1572
sg759
g760
sba(imove
move
p1573
(dp1574
g755
(I102
I7
tp1575
sg757
(I102
I5
tp1576
sg759
g760
sba(imove
move
p1577
(dp1578
g755
(I102
I7
tp1579
sg757
(I102
I6
tp1580
sg759
g760
sba(imove
move
p1581
(dp1582
g755
(I102
I7
tp1583
sg757
(I102
I5
tp1584
sg759
g760
sba(imove
move
p1585
(dp1586
g755
(I102
I7
tp1587
sg757
(I102
I6
tp1588
sg759
g760
sba(imove
move
p1589
(dp1590
g755
(I102
I7
tp1591
sg757
(I102
I5
tp1592
sg759
g760
sba(imove
move
p1593
(dp1594
g755
(I102
I7
tp1595
sg757
(I102
I6
tp1596
sg759
g760
sba(imove
move
p1597
(dp1598
g755
(I102
I7
tp1599
sg757
(I102
I5
tp1600
sg759
g760
sba(imove
move
p1601
(dp1602
g755
(I102
I7
tp1603
sg757
(I102
I6
tp1604
sg759
g760
sba(imove
move
p1605
(dp1606
g755
(I102
I7
tp1607
sg757
(I102
I5
tp1608
sg759
g760
sba(imove
move
p1609
(dp1610
g755
(I102
I7
tp1611
sg757
(I102
I6
tp1612
sg759
g760
sba(imove
move
p1613
(dp1614
g755
(I102
I7
tp1615
sg757
(I102
I5
tp1616
sg759
g760
sba(imove
move
p1617
(dp1618
g755
(I102
I7
tp1619
sg757
(I102
I6
tp1620
sg759
g760
sba(imove
move
p1621
(dp1622
g755
(I102
I7
tp1623
sg757
(I102
I5
tp1624
sg759
g760
sba(imove
move
p1625
(dp1626
g755
(I102
I7
tp1627
sg757
(I102
I6
tp1628
sg759
g760
sba(imove
move
p1629
(dp1630
g755
(I102
I7
tp1631
sg757
(I102
I5
tp1632
sg759
g760
sba(imove
move
p1633
(dp1634
g755
(I102
I7
tp1635
sg757
(I102
I6
tp1636
sg759
g760
sba(imove
move
p1637
(dp1638
g755
(I102
I7
tp1639
sg757
(I102
I5
tp1640
sg759
g760
sba(imove
move
p1641
(dp1642
g755
(I102
I7
tp1643
sg757
(I102
I6
tp1644
sg759
g760
sba(imove
move
p1645
(dp1646
g755
(I102
I7
tp1647
sg757
(I102
I5
tp1648
sg759
g760
sba(imove
move
p1649
(dp1650
g755
(I102
I7
tp1651
sg757
(I102
I6
tp1652
sg759
g760
sba(imove
move
p1653
(dp1654
g755
(I102
I7
tp1655
sg757
(I102
I5
tp1656
sg759
g760
sba(imove
move
p1657
(dp1658
g755
(I102
I7
tp1659
sg757
(I102
I6
tp1660
sg759
g760
sba(imove
move
p1661
(dp1662
g755
(I102
I7
tp1663
sg757
(I102
I5
tp1664
sg759
g760
sba(imove
move
p1665
(dp1666
g755
(I102
I7
tp1667
sg757
(I102
I6
tp1668
sg759
g760
sba(imove
move
p1669
(dp1670
g755
(I102
I7
tp1671
sg757
(I102
I5
tp1672
sg759
g760
sba(imove
move
p1673
(dp1674
g755
(I102
I7
tp1675
sg757
(I102
I6
tp1676
sg759
g760
sba(imove
move
p1677
(dp1678
g755
(I102
I7
tp1679
sg757
(I102
I5
tp1680
sg759
g760
sba(imove
move
p1681
(dp1682
g755
(I102
I7
tp1683
sg757
(I102
I6
tp1684
sg759
g760
sba(imove
move
p1685
(dp1686
g755
(I102
I7
tp1687
sg757
(I102
I5
tp1688
sg759
g760
sba(imove
move
p1689
(dp1690
g755
(I102
I7
tp1691
sg757
(I102
I6
tp1692
sg759
g760
sba(imove
move
p1693
(dp1694
g755
(I102
I7
tp1695
sg757
(I102
I5
tp1696
sg759
g760
sba(imove
move
p1697
(dp1698
g755
(I102
I7
tp1699
sg757
(I102
I6
tp1700
sg759
g760
sba(imove
move
p1701
(dp1702
g755
(I102
I7
tp1703
sg757
(I102
I5
tp1704
sg759
g760
sba(imove
move
p1705
(dp1706
g755
(I102
I7
tp1707
sg757
(I102
I6
tp1708
sg759
g760
sba(imove
move
p1709
(dp1710
g755
(I102
I7
tp1711
sg757
(I102
I5
tp1712
sg759
g760
sba(imove
move
p1713
(dp1714
g755
(I102
I7
tp1715
sg757
(I102
I6
tp1716
sg759
g760
sba(imove
move
p1717
(dp1718
g755
(I102
I7
tp1719
sg757
(I102
I5
tp1720
sg759
g760
sba(imove
move
p1721
(dp1722
g755
(I101
I7
tp1723
sg757
(I101
I6
tp1724
sg759
g760
sba(imove
move
p1725
(dp1726
g755
(I101
I7
tp1727
sg757
(I101
I5
tp1728
sg759
g760
sba(imove
move
p1729
(dp1730
g755
(I102
I7
tp1731
sg757
(I102
I6
tp1732
sg759
g760
sba(imove
move
p1733
(dp1734
g755
(I102
I7
tp1735
sg757
(I102
I5
tp1736
sg759
g760
sba(imove
move
p1737
(dp1738
g755
(I101
I7
tp1739
sg757
(I101
I6
tp1740
sg759
g760
sba(imove
move
p1741
(dp1742
g755
(I101
I7
tp1743
sg757
(I101
I5
tp1744
sg759
g760
sba(imove
move
p1745
(dp1746
g755
(I102
I7
tp1747
sg757
(I102
I6
tp1748
sg759
g760
sba(imove
move
p1749
(dp1750
g755
(I102
I7
tp1751
sg757
(I102
I5
tp1752
sg759
g760
sba(imove
move
p1753
(dp1754
g755
(I101
I7
tp1755
sg757
(I101
I6
tp1756
sg759
g760
sba(imove
move
p1757
(dp1758
g755
(I101
I7
tp1759
sg757
(I101
I5
tp1760
sg759
g760
sba(imove
move
p1761
(dp1762
g755
(I102
I7
tp1763
sg757
(I102
I6
tp1764
sg759
g760
sba(imove
move
p1765
(dp1766
g755
(I102
I7
tp1767
sg757
(I102
I5
tp1768
sg759
g760
sba(imove
move
p1769
(dp1770
g755
(I101
I7
tp1771
sg757
(I101
I6
tp1772
sg759
g760
sba(imove
move
p1773
(dp1774
g755
(I101
I7
tp1775
sg757
(I101
I5
tp1776
sg759
g760
sba(imove
move
p1777
(dp1778
g755
(I102
I7
tp1779
sg757
(I102
I6
tp1780
sg759
g760
sba(imove
move
p1781
(dp1782
g755
(I102
I7
tp1783
sg757
(I102
I5
tp1784
sg759
g760
sba(imove
move
p1785
(dp1786
g755
(I101
I7
tp1787
sg757
(I101
I6
tp1788
sg759
g760
sba(imove
move
p1789
(dp1790
g755
(I101
I7
tp1791
sg757
(I101
I5
tp1792
sg759
g760
sba(imove
move
p1793
(dp1794
g755
(I102
I7
tp1795
sg757
(I102
I6
tp1796
sg759
g760
sba(imove
move
p1797
(dp1798
g755
(I102
I7
tp1799
sg757
(I102
I5
tp1800
sg759
g760
sba(imove
move
p1801
(dp1802
g755
(I101
I7
tp1803
sg757
(I101
I6
tp1804
sg759
g760
sba(imove
move
p1805
(dp1806
g755
(I101
I7
tp1807
sg757
(I101
I5
tp1808
sg759
g760
sba(imove
move
p1809
(dp1810
g755
(I102
I7
tp1811
sg757
(I102
I6
tp1812
sg759
g760
sba(imove
move
p1813
(dp1814
g755
(I102
I7
tp1815
sg757
(I102
I5
tp1816
sg759
g760
sba(imove
move
p1817
(dp1818
g755
(I101
I7
tp1819
sg757
(I101
I6
tp1820
sg759
g760
sba(imove
move
p1821
(dp1822
g755
(I101
I7
tp1823
sg757
(I101
I5
tp1824
sg759
g760
sba(imove
move
p1825
(dp1826
g755
(I102
I7
tp1827
sg757
(I102
I6
tp1828
sg759
g760
sba(imove
move
p1829
(dp1830
g755
(I102
I7
tp1831
sg757
(I102
I5
tp1832
sg759
g760
sba(imove
move
p1833
(dp1834
g755
(I101
I7
tp1835
sg757
(I101
I6
tp1836
sg759
g760
sba(imove
move
p1837
(dp1838
g755
(I101
I7
tp1839
sg757
(I101
I5
tp1840
sg759
g760
sba(imove
move
p1841
(dp1842
g755
(I102
I7
tp1843
sg757
(I102
I6
tp1844
sg759
g760
sba(imove
move
p1845
(dp1846
g755
(I102
I7
tp1847
sg757
(I102
I5
tp1848
sg759
g760
sba(imove
move
p1849
(dp1850
g755
(I101
I7
tp1851
sg757
(I101
I6
tp1852
sg759
g760
sba(imove
move
p1853
(dp1854
g755
(I101
I7
tp1855
sg757
(I101
I5
tp1856
sg759
g760
sba(imove
move
p1857
(dp1858
g755
(I102
I7
tp1859
sg757
(I102
I6
tp1860
sg759
g760
sba(imove
move
p1861
(dp1862
g755
(I102
I7
tp1863
sg757
(I102
I5
tp1864
sg759
g760
sba(imove
move
p1865
(dp1866
g755
(I101
I7
tp1867
sg757
(I101
I6
tp1868
sg759
g760
sba(imove
move
p1869
(dp1870
g755
(I101
I7
tp1871
sg757
(I101
I5
tp1872
sg759
g760
sba(imove
move
p1873
(dp1874
g755
(I102
I7
tp1875
sg757
(I102
I6
tp1876
sg759
g760
sba(imove
move
p1877
(dp1878
g755
(I102
I7
tp1879
sg757
(I102
I5
tp1880
sg759
g760
sba(imove
move
p1881
(dp1882
g755
(I101
I7
tp1883
sg757
(I101
I6
tp1884
sg759
g760
sba(imove
move
p1885
(dp1886
g755
(I101
I7
tp1887
sg757
(I101
I5
tp1888
sg759
g760
sba(imove
move
p1889
(dp1890
g755
(I102
I7
tp1891
sg757
(I102
I6
tp1892
sg759
g760
sba(imove
move
p1893
(dp1894
g755
(I102
I7
tp1895
sg757
(I102
I5
tp1896
sg759
g760
sba(imove
move
p1897
(dp1898
g755
(I102
I7
tp1899
sg757
(I102
I6
tp1900
sg759
g760
sba(imove
move
p1901
(dp1902
g755
(I102
I7
tp1903
sg757
(I102
I5
tp1904
sg759
g760
sba(imove
move
p1905
(dp1906
g755
(I102
I7
tp1907
sg757
(I102
I6
tp1908
sg759
g760
sba(imove
move
p1909
(dp1910
g755
(I102
I7
tp1911
sg757
(I102
I5
tp1912
sg759
g760
sba(imove
move
p1913
(dp1914
g755
(I101
I7
tp1915
sg757
(I101
I5
tp1916
sg759
g760
sba(imove
move
p1917
(dp1918
g755
(I103
I1
tp1919
sg757
(I104
I3
tp1920
sg759
g760
sba(imove
move
p1921
(dp1922
g755
(I103
I1
tp1923
sg757
(I102
I3
tp1924
sg759
g760
sba(imove
move
p1925
(dp1926
g755
(I103
I1
tp1927
sg757
(I101
I2
tp1928
sg759
g760
sba(imove
move
p1929
(dp1930
g755
(I103
I1
tp1931
sg757
(I104
I3
tp1932
sg759
g760
sba(imove
move
p1933
(dp1934
g755
(I103
I1
tp1935
sg757
(I102
I3
tp1936
sg759
g760
sba(imove
move
p1937
(dp1938
g755
(I103
I1
tp1939
sg757
(I101
I2
tp1940
sg759
g760
sba(imove
move
p1941
(dp1942
g755
(I103
I1
tp1943
sg757
(I104
I3
tp1944
sg759
g760
sba(imove
move
p1945
(dp1946
g755
(I103
I1
tp1947
sg757
(I102
I3
tp1948
sg759
g760
sba(imove
move
p1949
(dp1950
g755
(I103
I1
tp1951
sg757
(I101
I2
tp1952
sg759
g760
sba(imove
move
p1953
(dp1954
g755
(I103
I1
tp1955
sg757
(I104
I3
tp1956
sg759
g760
sba(imove
move
p1957
(dp1958
g755
(I103
I1
tp1959
sg757
(I102
I3
tp1960
sg759
g760
sba(imove
move
p1961
(dp1962
g755
(I103
I1
tp1963
sg757
(I101
I2
tp1964
sg759
g760
sba(imove
move
p1965
(dp1966
g755
(I103
I1
tp1967
sg757
(I104
I3
tp1968
sg759
g760
sba(imove
move
p1969
(dp1970
g755
(I103
I1
tp1971
sg757
(I102
I3
tp1972
sg759
g760
sba(imove
move
p1973
(dp1974
g755
(I103
I1
tp1975
sg757
(I101
I2
tp1976
sg759
g760
sba(imove
move
p1977
(dp1978
g755
(I103
I1
tp1979
sg757
(I104
I3
tp1980
sg759
g760
sba(imove
move
p1981
(dp1982
g755
(I103
I1
tp1983
sg757
(I102
I3
tp1984
sg759
g760
sba(imove
move
p1985
(dp1986
g755
(I103
I1
tp1987
sg757
(I101
I2
tp1988
sg759
g760
sba(imove
move
p1989
(dp1990
g755
(I103
I1
tp1991
sg757
(I104
I3
tp1992
sg759
g760
sba(imove
move
p1993
(dp1994
g755
(I103
I1
tp1995
sg757
(I102
I3
tp1996
sg759
g760
sba(imove
move
p1997
(dp1998
g755
(I103
I1
tp1999
sg757
(I101
I2
tp2000
sg759
g760
sba(imove
move
p2001
(dp2002
g755
(I103
I1
tp2003
sg757
(I104
I3
tp2004
sg759
g760
sba(imove
move
p2005
(dp2006
g755
(I103
I1
tp2007
sg757
(I102
I3
tp2008
sg759
g760
sba(imove
move
p2009
(dp2010
g755
(I103
I1
tp2011
sg757
(I101
I2
tp2012
sg759
g760
sba(imove
move
p2013
(dp2014
g755
(I103
I1
tp2015
sg757
(I104
I3
tp2016
sg759
g760
sba(imove
move
p2017
(dp2018
g755
(I103
I1
tp2019
sg757
(I102
I3
tp2020
sg759
g760
sba(imove
move
p2021
(dp2022
g755
(I103
I1
tp2023
sg757
(I101
I2
tp2024
sg759
g760
sba(imove
move
p2025
(dp2026
g755
(I103
I1
tp2027
sg757
(I104
I3
tp2028
sg759
g760
sba(imove
move
p2029
(dp2030
g755
(I103
I1
tp2031
sg757
(I102
I3
tp2032
sg759
g760
sba(imove
move
p2033
(dp2034
g755
(I103
I1
tp2035
sg757
(I101
I2
tp2036
sg759
g760
sba(imove
move
p2037
(dp2038
g755
(I103
I1
tp2039
sg757
(I104
I3
tp2040
sg759
g760
sba(imove
move
p2041
(dp2042
g755
(I103
I1
tp2043
sg757
(I102
I3
tp2044
sg759
g760
sba(imove
move
p2045
(dp2046
g755
(I103
I1
tp2047
sg757
(I101
I2
tp2048
sg759
g760
sba(imove
move
p2049
(dp2050
g755
(I103
I1
tp2051
sg757
(I104
I3
tp2052
sg759
g760
sba(imove
move
p2053
(dp2054
g755
(I103
I1
tp2055
sg757
(I102
I3
tp2056
sg759
g760
sba(imove
move
p2057
(dp2058
g755
(I103
I1
tp2059
sg757
(I101
I2
tp2060
sg759
g760
sba(imove
move
p2061
(dp2062
g755
(I103
I1
tp2063
sg757
(I104
I3
tp2064
sg759
g760
sba(imove
move
p2065
(dp2066
g755
(I103
I1
tp2067
sg757
(I102
I3
tp2068
sg759
g760
sba(imove
move
p2069
(dp2070
g755
(I103
I1
tp2071
sg757
(I101
I2
tp2072
sg759
g760
sba(imove
move
p2073
(dp2074
g755
(I103
I1
tp2075
sg757
(I104
I3
tp2076
sg759
g760
sba(imove
move
p2077
(dp2078
g755
(I103
I1
tp2079
sg757
(I102
I3
tp2080
sg759
g760
sba(imove
move
p2081
(dp2082
g755
(I103
I1
tp2083
sg757
(I101
I2
tp2084
sg759
g760
sba(imove
move
p2085
(dp2086
g755
(I103
I1
tp2087
sg757
(I102
I3
tp2088
sg759
g760
sba(imove
move
p2089
(dp2090
g755
(I103
I1
tp2091
sg757
(I104
I3
tp2092
sg759
g760
sba(imove
move
p2093
(dp2094
g755
(I103
I1
tp2095
sg757
(I102
I3
tp2096
sg759
g760
sba(imove
move
p2097
(dp2098
g755
(I103
I1
tp2099
sg757
(I101
I2
tp2100
sg759
g760
sba(imove
move
p2101
(dp2102
g755
(I103
I1
tp2103
sg757
(I104
I3
tp2104
sg759
g760
sba(imove
move
p2105
(dp2106
g755
(I103
I1
tp2107
sg757
(I102
I3
tp2108
sg759
g760
sba(imove
move
p2109
(dp2110
g755
(I103
I1
tp2111
sg757
(I101
I2
tp2112
sg759
g760
sba(imove
move
p2113
(dp2114
g755
(I103
I1
tp2115
sg757
(I104
I3
tp2116
sg759
g760
sba(imove
move
p2117
(dp2118
g755
(I103
I1
tp2119
sg757
(I102
I3
tp2120
sg759
g760
sba(imove
move
p2121
(dp2122
g755
(I103
I1
tp2123
sg757
(I101
I2
tp2124
sg759
g760
sba(imove
move
p2125
(dp2126
g755
(I103
I1
tp2127
sg757
(I104
I3
tp2128
sg759
g760
sba(imove
move
p2129
(dp2130
g755
(I103
I1
tp2131
sg757
(I102
I3
tp2132
sg759
g760
sba(imove
move
p2133
(dp2134
g755
(I103
I1
tp2135
sg757
(I101
I2
tp2136
sg759
g760
sba(imove
move
p2137
(dp2138
g755
(I103
I1
tp2139
sg757
(I104
I3
tp2140
sg759
g760
sba(imove
move
p2141
(dp2142
g755
(I103
I1
tp2143
sg757
(I102
I3
tp2144
sg759
g760
sba(imove
move
p2145
(dp2146
g755
(I103
I1
tp2147
sg757
(I101
I2
tp2148
sg759
g760
sba(imove
move
p2149
(dp2150
g755
(I103
I1
tp2151
sg757
(I104
I3
tp2152
sg759
g760
sba(imove
move
p2153
(dp2154
g755
(I103
I1
tp2155
sg757
(I102
I3
tp2156
sg759
g760
sba(imove
move
p2157
(dp2158
g755
(I103
I1
tp2159
sg757
(I101
I2
tp2160
sg759
g760
sba(imove
move
p2161
(dp2162
g755
(I103
I1
tp2163
sg757
(I104
I3
tp2164
sg759
g760
sba(imove
move
p2165
(dp2166
g755
(I103
I1
tp2167
sg757
(I102
I3
tp2168
sg759
g760
sba(imove
move
p2169
(dp2170
g755
(I103
I1
tp2171
sg757
(I101
I2
tp2172
sg759
g760
sba(imove
move
p2173
(dp2174
g755
(I103
I1
tp2175
sg757
(I104
I3
tp2176
sg759
g760
sba(imove
move
p2177
(dp2178
g755
(I103
I1
tp2179
sg757
(I102
I3
tp2180
sg759
g760
sba(imove
move
p2181
(dp2182
g755
(I103
I1
tp2183
sg757
(I101
I2
tp2184
sg759
g760
sba(imove
move
p2185
(dp2186
g755
(I103
I1
tp2187
sg757
(I104
I3
tp2188
sg759
g760
sba(imove
move
p2189
(dp2190
g755
(I103
I1
tp2191
sg757
(I102
I3
tp2192
sg759
g760
sba(imove
move
p2193
(dp2194
g755
(I103
I1
tp2195
sg757
(I101
I2
tp2196
sg759
g760
sba(imove
move
p2197
(dp2198
g755
(I103
I1
tp2199
sg757
(I104
I3
tp2200
sg759
g760
sba(imove
move
p2201
(dp2202
g755
(I103
I1
tp2203
sg757
(I102
I3
tp2204
sg759
g760
sba(imove
move
p2205
(dp2206
g755
(I103
I1
tp2207
sg757
(I101
I2
tp2208
sg759
g760
sba(imove
move
p2209
(dp2210
g755
(I103
I1
tp2211
sg757
(I104
I3
tp2212
sg759
g760
sba(imove
move
p2213
(dp2214
g755
(I103
I1
tp2215
sg757
(I102
I3
tp2216
sg759
g760
sba(imove
move
p2217
(dp2218
g755
(I103
I1
tp2219
sg757
(I101
I2
tp2220
sg759
g760
sba(imove
move
p2221
(dp2222
g755
(I103
I1
tp2223
sg757
(I104
I3
tp2224
sg759
g760
sba(imove
move
p2225
(dp2226
g755
(I103
I1
tp2227
sg757
(I102
I3
tp2228
sg759
g760
sba(imove
move
p2229
(dp2230
g755
(I103
I1
tp2231
sg757
(I101
I2
tp2232
sg759
g760
sba(imove
move
p2233
(dp2234
g755
(I103
I1
tp2235
sg757
(I104
I3
tp2236
sg759
g760
sba(imove
move
p2237
(dp2238
g755
(I103
I1
tp2239
sg757
(I102
I3
tp2240
sg759
g760
sba(imove
move
p2241
(dp2242
g755
(I103
I1
tp2243
sg757
(I101
I2
tp2244
sg759
g760
sba(imove
move
p2245
(dp2246
g755
(I103
I1
tp2247
sg757
(I102
I3
tp2248
sg759
g760
sba(imove
move
p2249
(dp2250
g755
(I102
I7
tp2251
sg757
(I102
I6
tp2252
sg759
g760
sba(imove
move
p2253
(dp2254
g755
(I102
I7
tp2255
sg757
(I102
I5
tp2256
sg759
g760
sba(imove
move
p2257
(dp2258
g755
(I102
I7
tp2259
sg757
(I102
I6
tp2260
sg759
g760
sba(imove
move
p2261
(dp2262
g755
(I102
I7
tp2263
sg757
(I102
I5
tp2264
sg759
g760
sba(imove
move
p2265
(dp2266
g755
(I102
I7
tp2267
sg757
(I102
I6
tp2268
sg759
g760
sba(imove
move
p2269
(dp2270
g755
(I102
I7
tp2271
sg757
(I102
I5
tp2272
sg759
g760
sba(imove
move
p2273
(dp2274
g755
(I102
I7
tp2275
sg757
(I102
I6
tp2276
sg759
g760
sba(imove
move
p2277
(dp2278
g755
(I102
I7
tp2279
sg757
(I102
I5
tp2280
sg759
g760
sba(imove
move
p2281
(dp2282
g755
(I102
I7
tp2283
sg757
(I102
I6
tp2284
sg759
g760
sba(imove
move
p2285
(dp2286
g755
(I102
I7
tp2287
sg757
(I102
I5
tp2288
sg759
g760
sba(imove
move
p2289
(dp2290
g755
(I102
I7
tp2291
sg757
(I102
I6
tp2292
sg759
g760
sba(imove
move
p2293
(dp2294
g755
(I102
I7
tp2295
sg757
(I102
I5
tp2296
sg759
g760
sba(imove
move
p2297
(dp2298
g755
(I102
I7
tp2299
sg757
(I102
I6
tp2300
sg759
g760
sba(imove
move
p2301
(dp2302
g755
(I102
I7
tp2303
sg757
(I102
I5
tp2304
sg759
g760
sba(imove
move
p2305
(dp2306
g755
(I102
I7
tp2307
sg757
(I102
I6
tp2308
sg759
g760
sba(imove
move
p2309
(dp2310
g755
(I102
I7
tp2311
sg757
(I102
I5
tp2312
sg759
g760
sba(imove
move
p2313
(dp2314
g755
(I102
I7
tp2315
sg757
(I102
I6
tp2316
sg759
g760
sba(imove
move
p2317
(dp2318
g755
(I102
I7
tp2319
sg757
(I102
I5
tp2320
sg759
g760
sba(imove
move
p2321
(dp2322
g755
(I102
I7
tp2323
sg757
(I102
I6
tp2324
sg759
g760
sba(imove
move
p2325
(dp2326
g755
(I102
I7
tp2327
sg757
(I102
I5
tp2328
sg759
g760
sba(imove
move
p2329
(dp2330
g755
(I102
I7
tp2331
sg757
(I102
I6
tp2332
sg759
g760
sba(imove
move
p2333
(dp2334
g755
(I102
I7
tp2335
sg757
(I102
I5
tp2336
sg759
g760
sba(imove
move
p2337
(dp2338
g755
(I102
I7
tp2339
sg757
(I102
I6
tp2340
sg759
g760
sba(imove
move
p2341
(dp2342
g755
(I102
I7
tp2343
sg757
(I102
I5
tp2344
sg759
g760
sba(imove
move
p2345
(dp2346
g755
(I102
I7
tp2347
sg757
(I102
I6
tp2348
sg759
g760
sba(imove
move
p2349
(dp2350
g755
(I102
I7
tp2351
sg757
(I102
I5
tp2352
sg759
g760
sba(imove
move
p2353
(dp2354
g755
(I102
I7
tp2355
sg757
(I102
I6
tp2356
sg759
g760
sba(imove
move
p2357
(dp2358
g755
(I102
I7
tp2359
sg757
(I102
I5
tp2360
sg759
g760
sba(imove
move
p2361
(dp2362
g755
(I102
I7
tp2363
sg757
(I102
I6
tp2364
sg759
g760
sba(imove
move
p2365
(dp2366
g755
(I102
I1
tp2367
sg757
(I101
I2
tp2368
sg759
g760
sba(imove
move
p2369
(dp2370
g755
(I102
I1
tp2371
sg757
(I100
I3
tp2372
sg759
g760
sba(imove
move
p2373
(dp2374
g755
(I102
I1
tp2375
sg757
(I99
I4
tp2376
sg759
g760
sba(imove
move
p2377
(dp2378
g755
(I102
I1
tp2379
sg757
(I98
I5
tp2380
sg759
g760
sba(imove
move
p2381
(dp2382
g755
(I102
I1
tp2383
sg757
(I97
I6
tp2384
sg759
g760
sba(imove
move
p2385
(dp2386
g755
(I102
I1
tp2387
sg757
(I101
I2
tp2388
sg759
g760
sba(imove
move
p2389
(dp2390
g755
(I102
I1
tp2391
sg757
(I100
I3
tp2392
sg759
g760
sba(imove
move
p2393
(dp2394
g755
(I102
I1
tp2395
sg757
(I99
I4
tp2396
sg759
g760
sba(imove
move
p2397
(dp2398
g755
(I102
I1
tp2399
sg757
(I98
I5
tp2400
sg759
g760
sba(imove
move
p2401
(dp2402
g755
(I102
I1
tp2403
sg757
(I97
I6
tp2404
sg759
g760
sba(imove
move
p2405
(dp2406
g755
(I102
I1
tp2407
sg757
(I101
I2
tp2408
sg759
g760
sba(imove
move
p2409
(dp2410
g755
(I102
I1
tp2411
sg757
(I100
I3
tp2412
sg759
g760
sba(imove
move
p2413
(dp2414
g755
(I102
I1
tp2415
sg757
(I99
I4
tp2416
sg759
g760
sba(imove
move
p2417
(dp2418
g755
(I102
I1
tp2419
sg757
(I98
I5
tp2420
sg759
g760
sba(imove
move
p2421
(dp2422
g755
(I102
I1
tp2423
sg757
(I97
I6
tp2424
sg759
g760
sba(imove
move
p2425
(dp2426
g755
(I102
I1
tp2427
sg757
(I101
I2
tp2428
sg759
g760
sba(imove
move
p2429
(dp2430
g755
(I102
I1
tp2431
sg757
(I100
I3
tp2432
sg759
g760
sba(imove
move
p2433
(dp2434
g755
(I102
I1
tp2435
sg757
(I99
I4
tp2436
sg759
g760
sba(imove
move
p2437
(dp2438
g755
(I102
I1
tp2439
sg757
(I98
I5
tp2440
sg759
g760
sba(imove
move
p2441
(dp2442
g755
(I102
I1
tp2443
sg757
(I97
I6
tp2444
sg759
g760
sba(imove
move
p2445
(dp2446
g755
(I102
I1
tp2447
sg757
(I101
I2
tp2448
sg759
g760
sba(imove
move
p2449
(dp2450
g755
(I102
I1
tp2451
sg757
(I100
I3
tp2452
sg759
g760
sba(imove
move
p2453
(dp2454
g755
(I102
I1
tp2455
sg757
(I99
I4
tp2456
sg759
g760
sba(imove
move
p2457
(dp2458
g755
(I102
I1
tp2459
sg757
(I98
I5
tp2460
sg759
g760
sba(imove
move
p2461
(dp2462
g755
(I102
I1
tp2463
sg757
(I97
I6
tp2464
sg759
g760
sba(imove
move
p2465
(dp2466
g755
(I102
I1
tp2467
sg757
(I101
I2
tp2468
sg759
g760
sba(imove
move
p2469
(dp2470
g755
(I102
I1
tp2471
sg757
(I100
I3
tp2472
sg759
g760
sba(imove
move
p2473
(dp2474
g755
(I102
I1
tp2475
sg757
(I99
I4
tp2476
sg759
g760
sba(imove
move
p2477
(dp2478
g755
(I102
I1
tp2479
sg757
(I98
I5
tp2480
sg759
g760
sba(imove
move
p2481
(dp2482
g755
(I102
I1
tp2483
sg757
(I97
I6
tp2484
sg759
g760
sba(imove
move
p2485
(dp2486
g755
(I102
I1
tp2487
sg757
(I101
I2
tp2488
sg759
g760
sba(imove
move
p2489
(dp2490
g755
(I102
I1
tp2491
sg757
(I100
I3
tp2492
sg759
g760
sba(imove
move
p2493
(dp2494
g755
(I102
I1
tp2495
sg757
(I99
I4
tp2496
sg759
g760
sba(imove
move
p2497
(dp2498
g755
(I102
I1
tp2499
sg757
(I98
I5
tp2500
sg759
g760
sba(imove
move
p2501
(dp2502
g755
(I102
I1
tp2503
sg757
(I97
I6
tp2504
sg759
g760
sba(imove
move
p2505
(dp2506
g755
(I102
I1
tp2507
sg757
(I101
I2
tp2508
sg759
g760
sba(imove
move
p2509
(dp2510
g755
(I102
I1
tp2511
sg757
(I100
I3
tp2512
sg759
g760
sba(imove
move
p2513
(dp2514
g755
(I102
I1
tp2515
sg757
(I99
I4
tp2516
sg759
g760
sba(imove
move
p2517
(dp2518
g755
(I102
I1
tp2519
sg757
(I98
I5
tp2520
sg759
g760
sba(imove
move
p2521
(dp2522
g755
(I102
I1
tp2523
sg757
(I97
I6
tp2524
sg759
g760
sba(imove
move
p2525
(dp2526
g755
(I102
I1
tp2527
sg757
(I101
I2
tp2528
sg759
g760
sba(imove
move
p2529
(dp2530
g755
(I102
I1
tp2531
sg757
(I100
I3
tp2532
sg759
g760
sba(imove
move
p2533
(dp2534
g755
(I102
I1
tp2535
sg757
(I99
I4
tp2536
sg759
g760
sba(imove
move
p2537
(dp2538
g755
(I102
I1
tp2539
sg757
(I98
I5
tp2540
sg759
g760
sba(imove
move
p2541
(dp2542
g755
(I102
I1
tp2543
sg757
(I97
I6
tp2544
sg759
g760
sba(imove
move
p2545
(dp2546
g755
(I102
I1
tp2547
sg757
(I101
I2
tp2548
sg759
g760
sba(imove
move
p2549
(dp2550
g755
(I102
I1
tp2551
sg757
(I100
I3
tp2552
sg759
g760
sba(imove
move
p2553
(dp2554
g755
(I102
I1
tp2555
sg757
(I99
I4
tp2556
sg759
g760
sba(imove
move
p2557
(dp2558
g755
(I102
I1
tp2559
sg757
(I98
I5
tp2560
sg759
g760
sba(imove
move
p2561
(dp2562
g755
(I102
I1
tp2563
sg757
(I97
I6
tp2564
sg759
g760
sba(imove
move
p2565
(dp2566
g755
(I102
I1
tp2567
sg757
(I101
I2
tp2568
sg759
g760
sba(imove
move
p2569
(dp2570
g755
(I102
I1
tp2571
sg757
(I100
I3
tp2572
sg759
g760
sba(imove
move
p2573
(dp2574
g755
(I102
I1
tp2575
sg757
(I99
I4
tp2576
sg759
g760
sba(imove
move
p2577
(dp2578
g755
(I102
I1
tp2579
sg757
(I98
I5
tp2580
sg759
g760
sba(imove
move
p2581
(dp2582
g755
(I102
I1
tp2583
sg757
(I97
I6
tp2584
sg759
g760
sba(imove
move
p2585
(dp2586
g755
(I102
I1
tp2587
sg757
(I101
I2
tp2588
sg759
g760
sba(imove
move
p2589
(dp2590
g755
(I102
I1
tp2591
sg757
(I100
I3
tp2592
sg759
g760
sba(imove
move
p2593
(dp2594
g755
(I102
I1
tp2595
sg757
(I99
I4
tp2596
sg759
g760
sba(imove
move
p2597
(dp2598
g755
(I102
I1
tp2599
sg757
(I98
I5
tp2600
sg759
g760
sba(imove
move
p2601
(dp2602
g755
(I102
I1
tp2603
sg757
(I97
I6
tp2604
sg759
g760
sba(imove
move
p2605
(dp2606
g755
(I102
I1
tp2607
sg757
(I101
I2
tp2608
sg759
g760
sba(imove
move
p2609
(dp2610
g755
(I102
I1
tp2611
sg757
(I100
I3
tp2612
sg759
g760
sba(imove
move
p2613
(dp2614
g755
(I102
I1
tp2615
sg757
(I99
I4
tp2616
sg759
g760
sba(imove
move
p2617
(dp2618
g755
(I102
I1
tp2619
sg757
(I98
I5
tp2620
sg759
g760
sba(imove
move
p2621
(dp2622
g755
(I102
I1
tp2623
sg757
(I97
I6
tp2624
sg759
g760
sba(imove
move
p2625
(dp2626
g755
(I102
I1
tp2627
sg757
(I99
I4
tp2628
sg759
g760
sba(imove
move
p2629
(dp2630
g755
(I99
I7
tp2631
sg757
(I99
I6
tp2632
sg759
g760
sba(imove
move
p2633
(dp2634
g755
(I99
I7
tp2635
sg757
(I99
I5
tp2636
sg759
g760
sba(imove
move
p2637
(dp2638
g755
(I99
I7
tp2639
sg757
(I99
I6
tp2640
sg759
g760
sba(imove
move
p2641
(dp2642
g755
(I99
I7
tp2643
sg757
(I99
I5
tp2644
sg759
g760
sba(imove
move
p2645
(dp2646
g755
(I99
I7
tp2647
sg757
(I99
I6
tp2648
sg759
g760
sba(imove
move
p2649
(dp2650
g755
(I99
I7
tp2651
sg757
(I99
I5
tp2652
sg759
g760
sba(imove
move
p2653
(dp2654
g755
(I99
I7
tp2655
sg757
(I99
I6
tp2656
sg759
g760
sba(imove
move
p2657
(dp2658
g755
(I99
I7
tp2659
sg757
(I99
I5
tp2660
sg759
g760
sba(imove
move
p2661
(dp2662
g755
(I99
I7
tp2663
sg757
(I99
I6
tp2664
sg759
g760
sba(imove
move
p2665
(dp2666
g755
(I99
I7
tp2667
sg757
(I99
I5
tp2668
sg759
g760
sba(imove
move
p2669
(dp2670
g755
(I99
I7
tp2671
sg757
(I99
I6
tp2672
sg759
g760
sba(imove
move
p2673
(dp2674
g755
(I99
I7
tp2675
sg757
(I99
I5
tp2676
sg759
g760
sba(imove
move
p2677
(dp2678
g755
(I99
I7
tp2679
sg757
(I99
I6
tp2680
sg759
g760
sba(imove
move
p2681
(dp2682
g755
(I99
I7
tp2683
sg757
(I99
I5
tp2684
sg759
g760
sba(imove
move
p2685
(dp2686
g755
(I99
I7
tp2687
sg757
(I99
I6
tp2688
sg759
g760
sba(imove
move
p2689
(dp2690
g755
(I99
I7
tp2691
sg757
(I99
I5
tp2692
sg759
g760
sba(imove
move
p2693
(dp2694
g755
(I99
I7
tp2695
sg757
(I99
I6
tp2696
sg759
g760
sba(imove
move
p2697
(dp2698
g755
(I99
I7
tp2699
sg757
(I99
I5
tp2700
sg759
g760
sba(imove
move
p2701
(dp2702
g755
(I99
I7
tp2703
sg757
(I99
I6
tp2704
sg759
g760
sba(imove
move
p2705
(dp2706
g755
(I99
I7
tp2707
sg757
(I99
I5
tp2708
sg759
g760
sba(imove
move
p2709
(dp2710
g755
(I99
I7
tp2711
sg757
(I99
I6
tp2712
sg759
g760
sba(imove
move
p2713
(dp2714
g755
(I99
I7
tp2715
sg757
(I99
I5
tp2716
sg759
g760
sba(imove
move
p2717
(dp2718
g755
(I99
I7
tp2719
sg757
(I99
I6
tp2720
sg759
g760
sba(imove
move
p2721
(dp2722
g755
(I99
I7
tp2723
sg757
(I99
I5
tp2724
sg759
g760
sba(imove
move
p2725
(dp2726
g755
(I99
I7
tp2727
sg757
(I99
I6
tp2728
sg759
g760
sba(imove
move
p2729
(dp2730
S'start'
p2731
(I101
I2
tp2732
sS'end'
p2733
(I101
I4
tp2734
sS'type'
p2735
S'normal'
p2736
sba(imove
move
p2737
(dp2738
g2731
(I101
I7
tp2739
sg2733
(I101
I5
tp2740
sg2735
g2736
sba(imove
move
p2741
(dp2742
g2731
(I103
I1
tp2743
sg2733
(I102
I3
tp2744
sg2735
g2736
sba(imove
move
p2745
(dp2746
g2731
(I103
I8
tp2747
sg2733
(I102
I6
tp2748
sg2735
g2736
sba(imove
move
p2749
(dp2750
g2731
(I102
I1
tp2751
sg2733
(I99
I4
tp2752
sg2735
g2736
sba(imove
move
p2753
(dp2754
g2731
(I102
I8
tp2755
sg2733
(I99
I5
tp2756
sg2735
g2736
sba(imove
move
p2757
(dp2758
S'start'
p2759
(I101
I2
tp2760
sS'end'
p2761
(I101
I4
tp2762
sS'type'
p2763
S'normal'
p2764
sba(imove
move
p2765
(dp2766
g2759
(I101
I7
tp2767
sg2761
(I101
I5
tp2768
sg2763
g2764
sba(imove
move
p2769
(dp2770
g2759
(I103
I1
tp2771
sg2761
(I102
I3
tp2772
sg2763
g2764
sba(imove
move
p2773
(dp2774
g2759
(I103
I8
tp2775
sg2761
(I102
I6
tp2776
sg2763
g2764
sba(imove
move
p2777
(dp2778
g2759
(I102
I1
tp2779
sg2761
(I99
I4
tp2780
sg2763
g2764
sba(imove
move
p2781
(dp2782
g2759
(I102
I8
tp2783
sg2761
(I99
I5
tp2784
sg2763
g2764
sba(imove
move
p2785
(dp2786
S'start'
p2787
(I101
I2
tp2788
sS'end'
p2789
(I101
I4
tp2790
sS'type'
p2791
S'normal'
p2792
sba(imove
move
p2793
(dp2794
g2787
(I101
I7
tp2795
sg2789
(I101
I5
tp2796
sg2791
g2792
sba(imove
move
p2797
(dp2798
g2787
(I103
I1
tp2799
sg2789
(I102
I3
tp2800
sg2791
g2792
sbasS'temp'
p2801
NsS'kings'
p2802
(dp2803
S'B'
p2804
(I101
I8
tp2805
sS'W'
p2806
(I101
I1
tp2807
ssS'turnCount'
p2808
I3
sS'whitesTurn'
p2809
I00
sS'squares'
p2810
(dp2811
(I97
I2
tp2812
(isquare
square
p2813
(dp2814
S'neighbors'
p2815
(dp2816
S'right'
p2817
(I98
I2
tp2818
sS'top'
p2819
(I97
I3
tp2820
sS'btm-right'
p2821
(I98
I1
tp2822
sS'btm'
p2823
(I97
I1
tp2824
sS'top-right'
p2825
(I98
I3
tp2826
sS'left'
p2827
NsS'top-left'
p2828
NsS'btm-left'
p2829
NssS'contentColor'
p2830
g2806
sS'blackAttackingMe'
p2831
(lp2832
sS'whiteAttackingMe'
p2833
(lp2834
(I97
I1
tp2835
asS'pos'
p2836
g2812
sS'content'
p2837
S'Pawn'
p2838
sbs(I102
I7
tp2839
(isquare
square
p2840
(dp2841
g2815
(dp2842
g2817
(I103
I7
tp2843
sg2819
(I102
I8
tp2844
sg2821
(I103
I6
tp2845
sg2823
(I102
I6
tp2846
sg2825
(I103
I8
tp2847
sg2827
(I101
I7
tp2848
sg2828
(I101
I8
tp2849
sg2829
(I101
I6
tp2850
ssg2830
g2804
sg2831
(lp2851
(I101
I8
tp2852
asg2833
(lp2853
sg2836
g2839
sg2837
g2838
sbs(I99
I3
tp2854
(isquare
square
p2855
(dp2856
g2815
(dp2857
g2817
(I100
I3
tp2858
sg2819
(I99
I4
tp2859
sg2821
(I100
I2
tp2860
sg2823
(I99
I2
tp2861
sg2825
(I100
I4
tp2862
sg2827
(I98
I3
tp2863
sg2828
(I98
I4
tp2864
sg2829
(I98
I2
tp2865
ssg2830
S'_'
p2866
sg2831
(lp2867
sg2833
(lp2868
(I98
I2
tp2869
a(I100
I2
tp2870
a(I98
I1
tp2871
asg2836
g2854
sg2837
g2866
sbs(I104
I1
tp2872
(isquare
square
p2873
(dp2874
g2815
(dp2875
g2821
Nsg2819
(I104
I2
tp2876
sg2817
Nsg2823
Nsg2829
Nsg2828
(I103
I2
tp2877
sg2827
(I103
I1
tp2878
ssg2830
g2806
sg2831
(lp2879
sg2833
(lp2880
sg2836
g2872
sg2837
S'Rook'
p2881
sbs(I104
I5
tp2882
(isquare
square
p2883
(dp2884
g2815
(dp2885
g2817
Nsg2819
(I104
I6
tp2886
sg2821
Nsg2823
(I104
I4
tp2887
sg2825
Nsg2829
(I103
I4
tp2888
sg2828
(I103
I6
tp2889
sg2827
(I103
I5
tp2890
ssg2830
g2866
sg2831
(lp2891
sg2833
(lp2892
sg2836
g2882
sg2837
g2866
sbs(I103
I6
tp2893
(isquare
square
p2894
(dp2895
g2815
(dp2896
g2817
(I104
I6
tp2897
sg2819
(I103
I7
tp2898
sg2821
(I104
I5
tp2899
sg2823
(I103
I5
tp2900
sg2825
(I104
I7
tp2901
sg2827
(I102
I6
tp2902
sg2828
(I102
I7
tp2903
sg2829
(I102
I5
tp2904
ssg2830
g2866
sg2831
(lp2905
(I102
I7
tp2906
a(I104
I7
tp2907
asg2833
(lp2908
sg2836
g2893
sg2837
g2866
sbs(I100
I4
tp2909
(isquare
square
p2910
(dp2911
g2815
(dp2912
g2817
(I101
I4
tp2913
sg2819
(I100
I5
tp2914
sg2821
(I101
I3
tp2915
sg2823
(I100
I3
tp2916
sg2825
(I101
I5
tp2917
sg2827
(I99
I4
tp2918
sg2828
(I99
I5
tp2919
sg2829
(I99
I3
tp2920
ssg2830
g2866
sg2831
(lp2921
g2796
asg2833
(lp2922
g2800
asg2836
g2909
sg2837
g2866
sbs(I102
I3
tp2923
(isquare
square
p2924
(dp2925
g2815
(dp2926
g2817
(I103
I3
tp2927
sg2819
(I102
I4
tp2928
sg2821
(I103
I2
tp2929
sg2823
(I102
I2
tp2930
sg2825
(I103
I4
tp2931
sg2827
(I101
I3
tp2932
sg2828
(I101
I4
tp2933
sg2829
(I101
I2
tp2934
ssg2830
g2806
sg2831
(lp2935
sg2833
(lp2936
(I100
I1
tp2937
a(I103
I2
tp2938
asg2836
g2923
sg2837
S'Knight'
p2939
sbs(I97
I5
tp2940
(isquare
square
p2941
(dp2942
g2815
(dp2943
g2817
(I98
I5
tp2944
sg2819
(I97
I6
tp2945
sg2821
(I98
I4
tp2946
sg2823
(I97
I4
tp2947
sg2825
(I98
I6
tp2948
sg2827
Nsg2828
Nsg2829
Nssg2830
g2866
sg2831
(lp2949
sg2833
(lp2950
sg2836
g2940
sg2837
g2866
sbs(I99
I6
tp2951
(isquare
square
p2952
(dp2953
g2815
(dp2954
g2817
(I100
I6
tp2955
sg2819
(I99
I7
tp2956
sg2821
(I100
I5
tp2957
sg2823
(I99
I5
tp2958
sg2825
(I100
I7
tp2959
sg2827
(I98
I6
tp2960
sg2828
(I98
I7
tp2961
sg2829
(I98
I5
tp2962
ssg2830
g2866
sg2831
(lp2963
(I98
I7
tp2964
a(I100
I7
tp2965
a(I98
I8
tp2966
asg2833
(lp2967
sg2836
g2951
sg2837
g2866
sbs(I98
I2
tp2968
(isquare
square
p2969
(dp2970
g2815
(dp2971
g2817
(I99
I2
tp2972
sg2819
(I98
I3
tp2973
sg2821
(I99
I1
tp2974
sg2823
(I98
I1
tp2975
sg2825
(I99
I3
tp2976
sg2827
(I97
I2
tp2977
sg2828
(I97
I3
tp2978
sg2829
(I97
I1
tp2979
ssg2830
g2806
sg2831
(lp2980
sg2833
(lp2981
(I99
I1
tp2982
asg2836
g2968
sg2837
g2838
sbs(I104
I6
tp2983
(isquare
square
p2984
(dp2985
g2815
(dp2986
g2817
Nsg2819
(I104
I7
tp2987
sg2821
Nsg2823
(I104
I5
tp2988
sg2825
Nsg2829
(I103
I5
tp2989
sg2828
(I103
I7
tp2990
sg2827
(I103
I6
tp2991
ssg2830
g2866
sg2831
(lp2992
(I103
I8
tp2993
a(I103
I7
tp2994
asg2833
(lp2995
sg2836
g2983
sg2837
g2866
sbs(I100
I1
tp2996
(isquare
square
p2997
(dp2998
g2815
(dp2999
g2821
Nsg2819
(I100
I2
tp3000
sg2817
(I101
I1
tp3001
sg2823
Nsg2825
(I101
I2
tp3002
sg2829
Nsg2828
(I99
I2
tp3003
sg2827
(I99
I1
tp3004
ssg2830
g2806
sg2831
(lp3005
sg2833
(lp3006
(I101
I1
tp3007
asg2836
g2996
sg2837
S'Queen'
p3008
sbs(I97
I1
tp3009
(isquare
square
p3010
(dp3011
g2815
(dp3012
g2821
Nsg2819
(I97
I2
tp3013
sg2817
(I98
I1
tp3014
sg2823
Nsg2825
(I98
I2
tp3015
sg2829
Nsg2828
Nsg2827
Nssg2830
g2806
sg2831
(lp3016
sg2833
(lp3017
sg2836
g3009
sg2837
g2881
sbs(I101
I5
tp3018
(isquare
square
p3019
(dp3020
g2815
(dp3021
g2817
(I102
I5
tp3022
sg2819
(I101
I6
tp3023
sg2821
(I102
I4
tp3024
sg2823
(I101
I4
tp3025
sg2825
(I102
I6
tp3026
sg2827
(I100
I5
tp3027
sg2828
(I100
I6
tp3028
sg2829
(I100
I4
tp3029
ssg2830
g2804
sg2831
(lp3030
sg2833
(lp3031
g2800
asg2836
g3018
sg2837
g2838
sbs(I102
I4
tp3032
(isquare
square
p3033
(dp3034
g2815
(dp3035
g2817
(I103
I4
tp3036
sg2819
(I102
I5
tp3037
sg2821
(I103
I3
tp3038
sg2823
(I102
I3
tp3039
sg2825
(I103
I5
tp3040
sg2827
(I101
I4
tp3041
sg2828
(I101
I5
tp3042
sg2829
(I101
I3
tp3043
ssg2830
g2866
sg2831
(lp3044
g2796
asg2833
(lp3045
sg2836
g3032
sg2837
g2866
sbs(I99
I2
tp3046
(isquare
square
p3047
(dp3048
g2815
(dp3049
g2817
(I100
I2
tp3050
sg2819
(I99
I3
tp3051
sg2821
(I100
I1
tp3052
sg2823
(I99
I1
tp3053
sg2825
(I100
I3
tp3054
sg2827
(I98
I2
tp3055
sg2828
(I98
I3
tp3056
sg2829
(I98
I1
tp3057
ssg2830
g2806
sg2831
(lp3058
sg2833
(lp3059
g2937
asg2836
g3046
sg2837
g2838
sbs(I98
I6
tp3060
(isquare
square
p3061
(dp3062
g2815
(dp3063
g2817
(I99
I6
tp3064
sg2819
(I98
I7
tp3065
sg2821
(I99
I5
tp3066
sg2823
(I98
I5
tp3067
sg2825
(I99
I7
tp3068
sg2827
(I97
I6
tp3069
sg2828
(I97
I7
tp3070
sg2829
(I97
I5
tp3071
ssg2830
g2866
sg2831
(lp3072
(I97
I7
tp3073
a(I99
I7
tp3074
asg2833
(lp3075
sg2836
g3060
sg2837
g2866
sbs(I104
I2
tp3076
(isquare
square
p3077
(dp3078
g2815
(dp3079
g2817
Nsg2819
(I104
I3
tp3080
sg2821
Nsg2823
(I104
I1
tp3081
sg2825
Nsg2829
(I103
I1
tp3082
sg2828
(I103
I3
tp3083
sg2827
(I103
I2
tp3084
ssg2830
g2806
sg2831
(lp3085
sg2833
(lp3086
(I104
I1
tp3087
ag2800
asg2836
g3076
sg2837
g2838
sbs(I103
I5
tp3088
(isquare
square
p3089
(dp3090
g2815
(dp3091
g2817
(I104
I5
tp3092
sg2819
(I103
I6
tp3093
sg2821
(I104
I4
tp3094
sg2823
(I103
I4
tp3095
sg2825
(I104
I6
tp3096
sg2827
(I102
I5
tp3097
sg2828
(I102
I6
tp3098
sg2829
(I102
I4
tp3099
ssg2830
g2866
sg2831
(lp3100
(I100
I8
tp3101
asg2833
(lp3102
g2800
asg2836
g3088
sg2837
g2866
sbs(I103
I1
tp3103
(isquare
square
p3104
(dp3105
g2815
(dp3106
g2821
Nsg2819
(I103
I2
tp3107
sg2817
(I104
I1
tp3108
sg2823
Nsg2825
(I104
I2
tp3109
sg2829
Nsg2828
(I102
I2
tp3110
sg2827
(I102
I1
tp3111
ssg2830
g2866
sg2831
(lp3112
sg2833
(lp3113
g3087
ag2800
asg2836
g3103
sg2837
g2866
sbs(I100
I5
tp3114
(isquare
square
p3115
(dp3116
g2815
(dp3117
g2817
(I101
I5
tp3118
sg2819
(I100
I6
tp3119
sg2821
(I101
I4
tp3120
sg2823
(I100
I4
tp3121
sg2825
(I101
I6
tp3122
sg2827
(I99
I5
tp3123
sg2828
(I99
I6
tp3124
sg2829
(I99
I4
tp3125
ssg2830
g2866
sg2831
(lp3126
sg2833
(lp3127
g2790
asg2836
g3114
sg2837
g2866
sbs(I101
I2
tp3128
(isquare
square
p3129
(dp3130
g2815
(dp3131
g2817
(I102
I2
tp3132
sg2819
(I101
I3
tp3133
sg2821
(I102
I1
tp3134
sg2823
(I101
I1
tp3135
sg2825
(I102
I3
tp3136
sg2827
(I100
I2
tp3137
sg2828
(I100
I3
tp3138
sg2829
(I100
I1
tp3139
ssg2830
g2866
sg2831
(lp3140
sg2833
(lp3141
g2937
a(I102
I1
tp3142
ag3007
asg2836
g3128
sg2837
g2866
sbs(I97
I4
tp3143
(isquare
square
p3144
(dp3145
g2815
(dp3146
g2817
(I98
I4
tp3147
sg2819
(I97
I5
tp3148
sg2821
(I98
I3
tp3149
sg2823
(I97
I3
tp3150
sg2825
(I98
I5
tp3151
sg2827
Nsg2828
Nsg2829
Nssg2830
g2866
sg2831
(lp3152
sg2833
(lp3153
sg2836
g3143
sg2837
g2866
sbs(I102
I2
tp3154
(isquare
square
p3155
(dp3156
g2815
(dp3157
g2817
(I103
I2
tp3158
sg2819
(I102
I3
tp3159
sg2821
(I103
I1
tp3160
sg2823
(I102
I1
tp3161
sg2825
(I103
I3
tp3162
sg2827
(I101
I2
tp3163
sg2828
(I101
I3
tp3164
sg2829
(I101
I1
tp3165
ssg2830
g2806
sg2831
(lp3166
sg2833
(lp3167
g3007
asg2836
g3154
sg2837
g2838
sbs(I98
I3
tp3168
(isquare
square
p3169
(dp3170
g2815
(dp3171
g2817
(I99
I3
tp3172
sg2819
(I98
I4
tp3173
sg2821
(I99
I2
tp3174
sg2823
(I98
I2
tp3175
sg2825
(I99
I4
tp3176
sg2827
(I97
I3
tp3177
sg2828
(I97
I4
tp3178
sg2829
(I97
I2
tp3179
ssg2830
g2866
sg2831
(lp3180
sg2833
(lp3181
(I97
I2
tp3182
a(I99
I2
tp3183
asg2836
g3168
sg2837
g2866
sbs(I104
I7
tp3184
(isquare
square
p3185
(dp3186
g2815
(dp3187
g2817
Nsg2819
(I104
I8
tp3188
sg2821
Nsg2823
(I104
I6
tp3189
sg2825
Nsg2829
(I103
I6
tp3190
sg2828
(I103
I8
tp3191
sg2827
(I103
I7
tp3192
ssg2830
g2804
sg2831
(lp3193
(I104
I8
tp3194
asg2833
(lp3195
sg2836
g3184
sg2837
g2838
sbs(I100
I2
tp3196
(isquare
square
p3197
(dp3198
g2815
(dp3199
g2817
(I101
I2
tp3200
sg2819
(I100
I3
tp3201
sg2821
(I101
I1
tp3202
sg2823
(I100
I1
tp3203
sg2825
(I101
I3
tp3204
sg2827
(I99
I2
tp3205
sg2828
(I99
I3
tp3206
sg2829
(I99
I1
tp3207
ssg2830
g2806
sg2831
(lp3208
sg2833
(lp3209
g2800
ag2937
ag2982
ag2871
ag3007
asg2836
g3196
sg2837
g2838
sbs(I102
I5
tp3210
(isquare
square
p3211
(dp3212
g2815
(dp3213
g2817
(I103
I5
tp3214
sg2819
(I102
I6
tp3215
sg2821
(I103
I4
tp3216
sg2823
(I102
I4
tp3217
sg2825
(I103
I6
tp3218
sg2827
(I101
I5
tp3219
sg2828
(I101
I6
tp3220
sg2829
(I101
I4
tp3221
ssg2830
g2866
sg2831
(lp3222
sg2833
(lp3223
g2790
asg2836
g3210
sg2837
g2866
sbs(I99
I5
tp3224
(isquare
square
p3225
(dp3226
g2815
(dp3227
g2817
(I100
I5
tp3228
sg2819
(I99
I6
tp3229
sg2821
(I100
I4
tp3230
sg2823
(I99
I4
tp3231
sg2825
(I100
I6
tp3232
sg2827
(I98
I5
tp3233
sg2828
(I98
I6
tp3234
sg2829
(I98
I4
tp3235
ssg2830
g2866
sg2831
(lp3236
(I102
I8
tp3237
asg2833
(lp3238
sg2836
g3224
sg2837
g2866
sbs(I98
I7
tp3239
(isquare
square
p3240
(dp3241
g2815
(dp3242
g2817
(I99
I7
tp3243
sg2819
(I98
I8
tp3244
sg2821
(I99
I6
tp3245
sg2823
(I98
I6
tp3246
sg2825
(I99
I8
tp3247
sg2827
(I97
I7
tp3248
sg2828
(I97
I8
tp3249
sg2829
(I97
I6
tp3250
ssg2830
g2804
sg2831
(lp3251
(I99
I8
tp3252
asg2833
(lp3253
sg2836
g3239
sg2837
g2838
sbs(I104
I3
tp3254
(isquare
square
p3255
(dp3256
g2815
(dp3257
g2817
Nsg2819
(I104
I4
tp3258
sg2821
Nsg2823
(I104
I2
tp3259
sg2825
Nsg2829
(I103
I2
tp3260
sg2828
(I103
I4
tp3261
sg2827
(I103
I3
tp3262
ssg2830
g2866
sg2831
(lp3263
sg2833
(lp3264
g2938
asg2836
g3254
sg2837
g2866
sbs(I101
I7
tp3265
(isquare
square
p3266
(dp3267
g2815
(dp3268
g2817
(I102
I7
tp3269
sg2819
(I101
I8
tp3270
sg2821
(I102
I6
tp3271
sg2823
(I101
I6
tp3272
sg2825
(I102
I8
tp3273
sg2827
(I100
I7
tp3274
sg2828
(I100
I8
tp3275
sg2829
(I100
I6
tp3276
ssg2830
g2866
sg2831
(lp3277
g3237
ag2993
ag3101
ag2852
asg2833
(lp3278
sg2836
g3265
sg2837
g2866
sbs(I100
I6
tp3279
(isquare
square
p3280
(dp3281
g2815
(dp3282
g2817
(I101
I6
tp3283
sg2819
(I100
I7
tp3284
sg2821
(I101
I5
tp3285
sg2823
(I100
I5
tp3286
sg2825
(I101
I7
tp3287
sg2827
(I99
I6
tp3288
sg2828
(I99
I7
tp3289
sg2829
(I99
I5
tp3290
ssg2830
g2866
sg2831
(lp3291
g3237
ag3074
asg2833
(lp3292
sg2836
g3279
sg2837
g2866
sbs(I102
I1
tp3293
(isquare
square
p3294
(dp3295
g2815
(dp3296
g2821
Nsg2819
(I102
I2
tp3297
sg2817
(I103
I1
tp3298
sg2823
Nsg2825
(I103
I2
tp3299
sg2829
Nsg2828
(I101
I2
tp3300
sg2827
(I101
I1
tp3301
ssg2830
g2806
sg2831
(lp3302
sg2833
(lp3303
g3087
ag2937
ag3007
asg2836
g3293
sg2837
S'Bishop'
p3304
sbs(I99
I1
tp3305
(isquare
square
p3306
(dp3307
g2815
(dp3308
g2821
Nsg2819
(I99
I2
tp3309
sg2817
(I100
I1
tp3310
sg2823
Nsg2825
(I100
I2
tp3311
sg2829
Nsg2828
(I98
I2
tp3312
sg2827
(I98
I1
tp3313
ssg2830
g2806
sg2831
(lp3314
sg2833
(lp3315
g2937
asg2836
g3305
sg2837
g3304
sbs(I101
I4
tp3316
(isquare
square
p3317
(dp3318
g2815
(dp3319
g2817
(I102
I4
tp3320
sg2819
(I101
I5
tp3321
sg2821
(I102
I3
tp3322
sg2823
(I101
I3
tp3323
sg2825
(I102
I5
tp3324
sg2827
(I100
I4
tp3325
sg2828
(I100
I5
tp3326
sg2829
(I100
I3
tp3327
ssg2830
g2806
sg2831
(lp3328
sg2833
(lp3329
sg2836
g3316
sg2837
g2838
sbs(I99
I8
tp3330
(isquare
square
p3331
(dp3332
g2815
(dp3333
g2817
(I100
I8
tp3334
sg2819
Nsg2821
(I100
I7
tp3335
sg2823
(I99
I7
tp3336
sg2825
Nsg2829
(I98
I7
tp3337
sg2828
Nsg2827
(I98
I8
tp3338
ssg2830
g2804
sg2831
(lp3339
g3101
asg2833
(lp3340
sg2836
g3330
sg2837
g3304
sbs(I97
I8
tp3341
(isquare
square
p3342
(dp3343
g2815
(dp3344
g2817
(I98
I8
tp3345
sg2819
Nsg2821
(I98
I7
tp3346
sg2823
(I97
I7
tp3347
sg2825
Nsg2827
Nsg2828
Nsg2829
Nssg2830
g2804
sg2831
(lp3348
sg2833
(lp3349
sg2836
g3341
sg2837
g2881
sbs(I104
I8
tp3350
(isquare
square
p3351
(dp3352
g2815
(dp3353
g2817
Nsg2819
Nsg2821
Nsg2823
(I104
I7
tp3354
sg2825
Nsg2829
(I103
I7
tp3355
sg2828
Nsg2827
(I103
I8
tp3356
ssg2830
g2804
sg2831
(lp3357
sg2833
(lp3358
sg2836
g3350
sg2837
g2881
sbs(I100
I3
tp3359
(isquare
square
p3360
(dp3361
g2815
(dp3362
g2817
(I101
I3
tp3363
sg2819
(I100
I4
tp3364
sg2821
(I101
I2
tp3365
sg2823
(I100
I2
tp3366
sg2825
(I101
I4
tp3367
sg2827
(I99
I3
tp3368
sg2828
(I99
I4
tp3369
sg2829
(I99
I2
tp3370
ssg2830
g2866
sg2831
(lp3371
sg2833
(lp3372
g3183
ag3142
asg2836
g3359
sg2837
g2866
sbs(I97
I7
tp3373
(isquare
square
p3374
(dp3375
g2815
(dp3376
g2817
(I98
I7
tp3377
sg2819
(I97
I8
tp3378
sg2821
(I98
I6
tp3379
sg2823
(I97
I6
tp3380
sg2825
(I98
I8
tp3381
sg2827
Nsg2828
Nsg2829
Nssg2830
g2804
sg2831
(lp3382
(I97
I8
tp3383
asg2833
(lp3384
sg2836
g3373
sg2837
g2838
sbs(I99
I4
tp3385
(isquare
square
p3386
(dp3387
g2815
(dp3388
g2817
(I100
I4
tp3389
sg2819
(I99
I5
tp3390
sg2821
(I100
I3
tp3391
sg2823
(I99
I3
tp3392
sg2825
(I100
I5
tp3393
sg2827
(I98
I4
tp3394
sg2828
(I98
I5
tp3395
sg2829
(I98
I3
tp3396
ssg2830
g2866
sg2831
(lp3397
sg2833
(lp3398
g3142
asg2836
g3385
sg2837
g2866
sbs(I98
I4
tp3399
(isquare
square
p3400
(dp3401
g2815
(dp3402
g2817
(I99
I4
tp3403
sg2819
(I98
I5
tp3404
sg2821
(I99
I3
tp3405
sg2823
(I98
I3
tp3406
sg2825
(I99
I5
tp3407
sg2827
(I97
I4
tp3408
sg2828
(I97
I5
tp3409
sg2829
(I97
I3
tp3410
ssg2830
g2866
sg2831
(lp3411
g3237
asg2833
(lp3412
sg2836
g3399
sg2837
g2866
sbs(I104
I4
tp3413
(isquare
square
p3414
(dp3415
g2815
(dp3416
g2817
Nsg2819
(I104
I5
tp3417
sg2821
Nsg2823
(I104
I3
tp3418
sg2825
Nsg2829
(I103
I3
tp3419
sg2828
(I103
I5
tp3420
sg2827
(I103
I4
tp3421
ssg2830
g2866
sg2831
(lp3422
g3101
asg2833
(lp3423
g2800
asg2836
g3413
sg2837
g2866
sbs(I103
I3
tp3424
(isquare
square
p3425
(dp3426
g2815
(dp3427
g2817
(I104
I3
tp3428
sg2819
(I103
I4
tp3429
sg2821
(I104
I2
tp3430
sg2823
(I103
I2
tp3431
sg2825
(I104
I4
tp3432
sg2827
(I102
I3
tp3433
sg2828
(I102
I4
tp3434
sg2829
(I102
I2
tp3435
ssg2830
g2866
sg2831
(lp3436
sg2833
(lp3437
(I104
I2
tp3438
a(I102
I2
tp3439
asg2836
g3424
sg2837
g2866
sbs(I100
I7
tp3440
(isquare
square
p3441
(dp3442
g2815
(dp3443
g2817
(I101
I7
tp3444
sg2819
(I100
I8
tp3445
sg2821
(I101
I6
tp3446
sg2823
(I100
I6
tp3447
sg2825
(I101
I8
tp3448
sg2827
(I99
I7
tp3449
sg2828
(I99
I8
tp3450
sg2829
(I99
I6
tp3451
ssg2830
g2804
sg2831
(lp3452
g3252
ag3101
ag2966
ag2852
asg2833
(lp3453
sg2836
g3440
sg2837
g2838
sbs(I97
I3
tp3454
(isquare
square
p3455
(dp3456
g2815
(dp3457
g2817
(I98
I3
tp3458
sg2819
(I97
I4
tp3459
sg2821
(I98
I2
tp3460
sg2823
(I97
I2
tp3461
sg2825
(I98
I4
tp3462
sg2827
Nsg2828
Nsg2829
Nssg2830
g2866
sg2831
(lp3463
g3237
asg2833
(lp3464
g2869
ag2871
asg2836
g3454
sg2837
g2866
sbs(I100
I8
tp3465
(isquare
square
p3466
(dp3467
g2815
(dp3468
g2817
(I101
I8
tp3469
sg2819
Nsg2821
(I101
I7
tp3470
sg2823
(I100
I7
tp3471
sg2825
Nsg2829
(I99
I7
tp3472
sg2828
Nsg2827
(I99
I8
tp3473
ssg2830
g2804
sg2831
(lp3474
g2852
asg2833
(lp3475
sg2836
g3465
sg2837
g3008
sbs(I101
I6
tp3476
(isquare
square
p3477
(dp3478
g2815
(dp3479
g2817
(I102
I6
tp3480
sg2819
(I101
I7
tp3481
sg2821
(I102
I5
tp3482
sg2823
(I101
I5
tp3483
sg2825
(I102
I7
tp3484
sg2827
(I100
I6
tp3485
sg2828
(I100
I7
tp3486
sg2829
(I100
I5
tp3487
ssg2830
g2866
sg2831
(lp3488
g2906
ag2965
asg2833
(lp3489
sg2836
g3476
sg2837
g2866
sbs(I98
I8
tp3490
(isquare
square
p3491
(dp3492
g2815
(dp3493
g2817
(I99
I8
tp3494
sg2819
Nsg2821
(I99
I7
tp3495
sg2823
(I98
I7
tp3496
sg2825
Nsg2829
(I97
I7
tp3497
sg2828
Nsg2827
(I97
I8
tp3498
ssg2830
g2804
sg2831
(lp3499
g3383
asg2833
(lp3500
sg2836
g3490
sg2837
g2939
sbs(I102
I8
tp3501
(isquare
square
p3502
(dp3503
g2815
(dp3504
g2817
(I103
I8
tp3505
sg2819
Nsg2821
(I103
I7
tp3506
sg2823
(I102
I7
tp3507
sg2825
Nsg2829
(I101
I7
tp3508
sg2828
Nsg2827
(I101
I8
tp3509
ssg2830
g2804
sg2831
(lp3510
g3101
ag2852
asg2833
(lp3511
sg2836
g3501
sg2837
g3304
sbs(I102
I6
tp3512
(isquare
square
p3513
(dp3514
g2815
(dp3515
g2817
(I103
I6
tp3516
sg2819
(I102
I7
tp3517
sg2821
(I103
I5
tp3518
sg2823
(I102
I5
tp3519
sg2825
(I103
I7
tp3520
sg2827
(I101
I6
tp3521
sg2828
(I101
I7
tp3522
sg2829
(I101
I5
tp3523
ssg2830
g2866
sg2831
(lp3524
g2993
ag3101
ag2994
asg2833
(lp3525
sg2836
g3512
sg2837
g2866
sbs(I103
I7
tp3526
(isquare
square
p3527
(dp3528
g2815
(dp3529
g2817
(I104
I7
tp3530
sg2819
(I103
I8
tp3531
sg2821
(I104
I6
tp3532
sg2823
(I103
I6
tp3533
sg2825
(I104
I8
tp3534
sg2827
(I102
I7
tp3535
sg2828
(I102
I8
tp3536
sg2829
(I102
I6
tp3537
ssg2830
g2804
sg2831
(lp3538
g3237
asg2833
(lp3539
sg2836
g3526
sg2837
g2838
sbs(I98
I1
tp3540
(isquare
square
p3541
(dp3542
g2815
(dp3543
g2821
Nsg2819
(I98
I2
tp3544
sg2817
(I99
I1
tp3545
sg2823
Nsg2825
(I99
I2
tp3546
sg2829
Nsg2828
(I97
I2
tp3547
sg2827
(I97
I1
tp3548
ssg2830
g2806
sg2831
(lp3549
sg2833
(lp3550
g2835
asg2836
g3540
sg2837
g2939
sbs(I101
I1
tp3551
(isquare
square
p3552
(dp3553
g2815
(dp3554
g2821
Nsg2819
(I101
I2
tp3555
sg2817
(I102
I1
tp3556
sg2823
Nsg2825
(I102
I2
tp3557
sg2829
Nsg2828
(I100
I2
tp3558
sg2827
(I100
I1
tp3559
ssg2830
g2806
sg2831
(lp3560
sg2833
(lp3561
g2800
ag2937
asg2836
g3551
sg2837
S'King'
p3562
sbs(I97
I6
tp3563
(isquare
square
p3564
(dp3565
g2815
(dp3566
g2817
(I98
I6
tp3567
sg2819
(I97
I7
tp3568
sg2821
(I98
I5
tp3569
sg2823
(I97
I5
tp3570
sg2825
(I98
I7
tp3571
sg2827
Nsg2828
Nsg2829
Nssg2830
g2866
sg2831
(lp3572
g2964
ag2966
asg2833
(lp3573
g3142
asg2836
g3563
sg2837
g2866
sbs(I103
I2
tp3574
(isquare
square
p3575
(dp3576
g2815
(dp3577
g2817
(I104
I2
tp3578
sg2819
(I103
I3
tp3579
sg2821
(I104
I1
tp3580
sg2823
(I103
I1
tp3581
sg2825
(I104
I3
tp3582
sg2827
(I102
I2
tp3583
sg2828
(I102
I3
tp3584
sg2829
(I102
I1
tp3585
ssg2830
g2806
sg2831
(lp3586
sg2833
(lp3587
g3142
asg2836
g3574
sg2837
g2838
sbs(I99
I7
tp3588
(isquare
square
p3589
(dp3590
g2815
(dp3591
g2817
(I100
I7
tp3592
sg2819
(I99
I8
tp3593
sg2821
(I100
I6
tp3594
sg2823
(I99
I6
tp3595
sg2825
(I100
I8
tp3596
sg2827
(I98
I7
tp3597
sg2828
(I98
I8
tp3598
sg2829
(I98
I6
tp3599
ssg2830
g2804
sg2831
(lp3600
g3101
asg2833
(lp3601
sg2836
g3588
sg2837
g2838
sbs(I98
I5
tp3602
(isquare
square
p3603
(dp3604
g2815
(dp3605
g2817
(I99
I5
tp3606
sg2819
(I98
I6
tp3607
sg2821
(I99
I4
tp3608
sg2823
(I98
I4
tp3609
sg2825
(I99
I6
tp3610
sg2827
(I97
I5
tp3611
sg2828
(I97
I6
tp3612
sg2829
(I97
I4
tp3613
ssg2830
g2866
sg2831
(lp3614
sg2833
(lp3615
g3142
asg2836
g3602
sg2837
g2866
sbs(I101
I3
tp3616
(isquare
square
p3617
(dp3618
g2815
(dp3619
g2817
(I102
I3
tp3620
sg2819
(I101
I4
tp3621
sg2821
(I102
I2
tp3622
sg2823
(I101
I2
tp3623
sg2825
(I102
I4
tp3624
sg2827
(I100
I3
tp3625
sg2828
(I100
I4
tp3626
sg2829
(I100
I2
tp3627
ssg2830
g2866
sg2831
(lp3628
sg2833
(lp3629
g2870
ag3439
asg2836
g3616
sg2837
g2866
sbs(I103
I8
tp3630
(isquare
square
p3631
(dp3632
g2815
(dp3633
g2817
(I104
I8
tp3634
sg2819
Nsg2821
(I104
I7
tp3635
sg2823
(I103
I7
tp3636
sg2825
Nsg2829
(I102
I7
tp3637
sg2828
Nsg2827
(I102
I8
tp3638
ssg2830
g2804
sg2831
(lp3639
g3194
asg2833
(lp3640
sg2836
g3630
sg2837
g2939
sbs(I101
I8
tp3641
(isquare
square
p3642
(dp3643
g2815
(dp3644
g2817
(I102
I8
tp3645
sg2819
Nsg2821
(I102
I7
tp3646
sg2823
(I101
I7
tp3647
sg2825
Nsg2829
(I100
I7
tp3648
sg2828
Nsg2827
(I100
I8
tp3649
ssg2830
g2804
sg2831
(lp3650
g3101
asg2833
(lp3651
sg2836
g3641
sg2837
g3562
sbs(I103
I4
tp3652
(isquare
square
p3653
(dp3654
g2815
(dp3655
g2817
(I104
I4
tp3656
sg2819
(I103
I5
tp3657
sg2821
(I104
I3
tp3658
sg2823
(I103
I3
tp3659
sg2825
(I104
I5
tp3660
sg2827
(I102
I4
tp3661
sg2828
(I102
I5
tp3662
sg2829
(I102
I3
tp3663
ssg2830
g2866
sg2831
(lp3664
sg2833
(lp3665
sg2836
g3652
sg2837
g2866
sbssS'pieces'
p3666
(dp3667
g3182
(ipieces
pawn
p3668
(dp3669
S'color'
p3670
g2806
sS'iAm'
p3671
g2838
sS'pos'
p3672
g3182
sS'hasMoved'
p3673
I00
sbsg2906
(ipieces
pawn
p3674
(dp3675
g3670
g2804
sg3671
g2838
sg3672
g2906
sg3673
I00
sbsg2796
(ipieces
pawn
p3676
(dp3677
g3670
g2804
sg3671
g2838
sg3672
g2796
sg3673
I01
sbsg3087
(ipieces
rook
p3678
(dp3679
g3670
g2806
sg3671
g2881
sg3672
(I104
I1
tp3680
sbsg2800
(ipieces
knight
p3681
(dp3682
g3670
g2806
sg3671
g2939
sg3672
g2800
sbsg2869
(ipieces
pawn
p3683
(dp3684
g3670
g2806
sg3671
g2838
sg3672
(I98
I2
tp3685
sg3673
I00
sbsg2937
(ipieces
queen
p3686
(dp3687
g3670
g2806
sg3671
g3008
sg3672
(I100
I1
tp3688
sbsg2835
(ipieces
rook
p3689
(dp3690
g3670
g2806
sg3671
g2881
sg3672
(I97
I1
tp3691
sbsg3183
(ipieces
pawn
p3692
(dp3693
g3670
g2806
sg3671
g2838
sg3672
(I99
I2
tp3694
sg3673
I00
sbsg3438
(ipieces
pawn
p3695
(dp3696
g3670
g2806
sg3671
g2838
sg3672
(I104
I2
tp3697
sg3673
I00
sbsg2907
(ipieces
pawn
p3698
(dp3699
g3670
g2804
sg3671
g2838
sg3672
(I104
I7
tp3700
sg3673
I00
sbsg2870
(ipieces
pawn
p3701
(dp3702
g3670
g2806
sg3671
g2838
sg3672
(I100
I2
tp3703
sg3673
I00
sbsg2964
(ipieces
pawn
p3704
(dp3705
g3670
g2804
sg3671
g2838
sg3672
(I98
I7
tp3706
sg3673
I00
sbsg2982
(ipieces
bishop
p3707
(dp3708
g3670
g2806
sg3671
g3304
sg3672
(I99
I1
tp3709
sbsg3237
(ipieces
bishop
p3710
(dp3711
g3670
g2804
sg3671
g3304
sg3672
(I102
I8
tp3712
sbsg3142
(ipieces
bishop
p3713
(dp3714
g3670
g2806
sg3671
g3304
sg3672
(I102
I1
tp3715
sbsg2790
(ipieces
pawn
p3716
(dp3717
g3670
g2806
sg3671
g2838
sg3672
g2790
sg3673
I01
sbsg3252
(ipieces
bishop
p3718
(dp3719
g3670
g2804
sg3671
g3304
sg3672
(I99
I8
tp3720
sbsg3383
(ipieces
rook
p3721
(dp3722
g3670
g2804
sg3671
g2881
sg3672
(I97
I8
tp3723
sbsg3194
(ipieces
rook
p3724
(dp3725
g3670
g2804
sg3671
g2881
sg3672
(I104
I8
tp3726
sbsg3073
(ipieces
pawn
p3727
(dp3728
g3670
g2804
sg3671
g2838
sg3672
(I97
I7
tp3729
sg3673
I00
sbsg2993
(ipieces
knight
p3730
(dp3731
g3670
g2804
sg3671
g2939
sg3672
(I103
I8
tp3732
sbsg3074
(ipieces
pawn
p3733
(dp3734
g3670
g2804
sg3671
g2838
sg3672
(I99
I7
tp3735
sg3673
I00
sbsg2965
(ipieces
pawn
p3736
(dp3737
g3670
g2804
sg3671
g2838
sg3672
(I100
I7
tp3738
sg3673
I00
sbsg3101
(ipieces
queen
p3739
(dp3740
g3670
g2804
sg3671
g3008
sg3672
(I100
I8
tp3741
sbsg2966
(ipieces
knight
p3742
(dp3743
g3670
g2804
sg3671
g2939
sg3672
(I98
I8
tp3744
sbsg2994
(ipieces
pawn
p3745
(dp3746
g3670
g2804
sg3671
g2838
sg3672
(I103
I7
tp3747
sg3673
I00
sbsg2871
(ipieces
knight
p3748
(dp3749
g3670
g2806
sg3671
g2939
sg3672
(I98
I1
tp3750
sbsg3439
(ipieces
pawn
p3751
(dp3752
g3670
g2806
sg3671
g2838
sg3672
(I102
I2
tp3753
sg3673
I00
sbsg2852
(ipieces
king
p3754
(dp3755
g3670
g2804
sg3671
g3562
sg3672
(I101
I8
tp3756
sg3673
I00
sbsg3007
(ipieces
king
p3757
(dp3758
g3670
g2806
sg3671
g3562
sg3672
(I101
I1
tp3759
sg3673
I00
sbsg2938
(ipieces
pawn
p3760
(dp3761
g3670
g2806
sg3671
g2838
sg3672
(I103
I2
tp3762
sg3673
I00
sbssb.