(iboard
board
p0
(dp1
S'squares'
p2
(dp3
(I97
I2
tp4
(isquare
square
p5
(dp6
S'neighbors'
p7
(dp8
S'right'
p9
(I98
I2
tp10
sS'top'
p11
(I97
I3
tp12
sS'btm-right'
p13
(I98
I1
tp14
sS'btm'
p15
(I97
I1
tp16
sS'top-right'
p17
(I98
I3
tp18
sS'left'
p19
NsS'top-left'
p20
NsS'btm-left'
p21
NssS'contentColor'
p22
S'W'
p23
sS'blackAttackingMe'
p24
(lp25
sS'whiteAttackingMe'
p26
(lp27
(I97
I1
tp28
asS'pos'
p29
g4
sS'content'
p30
S'Pawn'
p31
sbs(I102
I7
tp32
(isquare
square
p33
(dp34
g7
(dp35
g9
(I103
I7
tp36
sg11
(I102
I8
tp37
sg13
(I103
I6
tp38
sg15
(I102
I6
tp39
sg17
(I103
I8
tp40
sg19
(I101
I7
tp41
sg20
(I101
I8
tp42
sg21
(I101
I6
tp43
ssg22
S'B'
p44
sg24
(lp45
(I101
I8
tp46
asg26
(lp47
sg29
g32
sg30
g31
sbs(I99
I3
tp48
(isquare
square
p49
(dp50
g7
(dp51
g9
(I100
I3
tp52
sg11
(I99
I4
tp53
sg13
(I100
I2
tp54
sg15
(I99
I2
tp55
sg17
(I100
I4
tp56
sg19
(I98
I3
tp57
sg20
(I98
I4
tp58
sg21
(I98
I2
tp59
ssg22
S'_'
p60
sg24
(lp61
sg26
(lp62
(I98
I2
tp63
a(I100
I2
tp64
a(I98
I1
tp65
asg29
g48
sg30
g60
sbs(I104
I1
tp66
(isquare
square
p67
(dp68
g7
(dp69
g13
Nsg11
(I104
I2
tp70
sg9
Nsg15
Nsg21
Nsg20
(I103
I2
tp71
sg19
(I103
I1
tp72
ssg22
g23
sg24
(lp73
sg26
(lp74
sg29
g66
sg30
S'Rook'
p75
sbs(I104
I5
tp76
(isquare
square
p77
(dp78
g7
(dp79
g9
Nsg11
(I104
I6
tp80
sg13
Nsg15
(I104
I4
tp81
sg17
Nsg21
(I103
I4
tp82
sg20
(I103
I6
tp83
sg19
(I103
I5
tp84
ssg22
g60
sg24
(lp85
sg26
(lp86
sg29
g76
sg30
g60
sbs(I103
I6
tp87
(isquare
square
p88
(dp89
g7
(dp90
g9
(I104
I6
tp91
sg11
(I103
I7
tp92
sg13
(I104
I5
tp93
sg15
(I103
I5
tp94
sg17
(I104
I7
tp95
sg19
(I102
I6
tp96
sg20
(I102
I7
tp97
sg21
(I102
I5
tp98
ssg22
g60
sg24
(lp99
(I102
I7
tp100
a(I104
I7
tp101
asg26
(lp102
sg29
g87
sg30
g60
sbs(I100
I4
tp103
(isquare
square
p104
(dp105
g7
(dp106
g9
(I101
I4
tp107
sg11
(I100
I5
tp108
sg13
(I101
I3
tp109
sg15
(I100
I3
tp110
sg17
(I101
I5
tp111
sg19
(I99
I4
tp112
sg20
(I99
I5
tp113
sg21
(I99
I3
tp114
ssg22
g60
sg24
(lp115
sg26
(lp116
sg29
g103
sg30
g60
sbs(I102
I3
tp117
(isquare
square
p118
(dp119
g7
(dp120
g9
(I103
I3
tp121
sg11
(I102
I4
tp122
sg13
(I103
I2
tp123
sg15
(I102
I2
tp124
sg17
(I103
I4
tp125
sg19
(I101
I3
tp126
sg20
(I101
I4
tp127
sg21
(I101
I2
tp128
ssg22
g60
sg24
(lp129
sg26
(lp130
(I103
I1
tp131
a(I101
I2
tp132
a(I103
I2
tp133
asg29
g117
sg30
g60
sbs(I97
I5
tp134
(isquare
square
p135
(dp136
g7
(dp137
g9
(I98
I5
tp138
sg11
(I97
I6
tp139
sg13
(I98
I4
tp140
sg15
(I97
I4
tp141
sg17
(I98
I6
tp142
sg19
Nsg20
Nsg21
Nssg22
g60
sg24
(lp143
sg26
(lp144
sg29
g134
sg30
g60
sbs(I99
I6
tp145
(isquare
square
p146
(dp147
g7
(dp148
g9
(I100
I6
tp149
sg11
(I99
I7
tp150
sg13
(I100
I5
tp151
sg15
(I99
I5
tp152
sg17
(I100
I7
tp153
sg19
(I98
I6
tp154
sg20
(I98
I7
tp155
sg21
(I98
I5
tp156
ssg22
g60
sg24
(lp157
(I98
I7
tp158
a(I100
I7
tp159
a(I98
I8
tp160
asg26
(lp161
sg29
g145
sg30
g60
sbs(I98
I2
tp162
(isquare
square
p163
(dp164
g7
(dp165
g9
(I99
I2
tp166
sg11
(I98
I3
tp167
sg13
(I99
I1
tp168
sg15
(I98
I1
tp169
sg17
(I99
I3
tp170
sg19
(I97
I2
tp171
sg20
(I97
I3
tp172
sg21
(I97
I1
tp173
ssg22
g23
sg24
(lp174
sg26
(lp175
(I99
I1
tp176
asg29
g162
sg30
g31
sbs(I104
I6
tp177
(isquare
square
p178
(dp179
g7
(dp180
g9
Nsg11
(I104
I7
tp181
sg13
Nsg15
(I104
I5
tp182
sg17
Nsg21
(I103
I5
tp183
sg20
(I103
I7
tp184
sg19
(I103
I6
tp185
ssg22
g60
sg24
(lp186
(I103
I8
tp187
a(I103
I7
tp188
asg26
(lp189
sg29
g177
sg30
g60
sbs(I100
I1
tp190
(isquare
square
p191
(dp192
g7
(dp193
g13
Nsg11
(I100
I2
tp194
sg9
(I101
I1
tp195
sg15
Nsg17
(I101
I2
tp196
sg21
Nsg20
(I99
I2
tp197
sg19
(I99
I1
tp198
ssg22
g23
sg24
(lp199
sg26
(lp200
(I101
I1
tp201
asg29
g190
sg30
S'Queen'
p202
sbs(I97
I1
tp203
(isquare
square
p204
(dp205
g7
(dp206
g13
Nsg11
(I97
I2
tp207
sg9
(I98
I1
tp208
sg15
Nsg17
(I98
I2
tp209
sg21
Nsg20
Nsg19
Nssg22
g23
sg24
(lp210
sg26
(lp211
sg29
g203
sg30
g75
sbs(I101
I5
tp212
(isquare
square
p213
(dp214
g7
(dp215
g9
(I102
I5
tp216
sg11
(I101
I6
tp217
sg13
(I102
I4
tp218
sg15
(I101
I4
tp219
sg17
(I102
I6
tp220
sg19
(I100
I5
tp221
sg20
(I100
I6
tp222
sg21
(I100
I4
tp223
ssg22
g60
sg24
(lp224
sg26
(lp225
sg29
g212
sg30
g60
sbs(I102
I4
tp226
(isquare
square
p227
(dp228
g7
(dp229
g9
(I103
I4
tp230
sg11
(I102
I5
tp231
sg13
(I103
I3
tp232
sg15
(I102
I3
tp233
sg17
(I103
I5
tp234
sg19
(I101
I4
tp235
sg20
(I101
I5
tp236
sg21
(I101
I3
tp237
ssg22
g60
sg24
(lp238
sg26
(lp239
sg29
g226
sg30
g60
sbs(I99
I2
tp240
(isquare
square
p241
(dp242
g7
(dp243
g9
(I100
I2
tp244
sg11
(I99
I3
tp245
sg13
(I100
I1
tp246
sg15
(I99
I1
tp247
sg17
(I100
I3
tp248
sg19
(I98
I2
tp249
sg20
(I98
I3
tp250
sg21
(I98
I1
tp251
ssg22
g23
sg24
(lp252
sg26
(lp253
(I100
I1
tp254
asg29
g240
sg30
g31
sbs(I98
I6
tp255
(isquare
square
p256
(dp257
g7
(dp258
g9
(I99
I6
tp259
sg11
(I98
I7
tp260
sg13
(I99
I5
tp261
sg15
(I98
I5
tp262
sg17
(I99
I7
tp263
sg19
(I97
I6
tp264
sg20
(I97
I7
tp265
sg21
(I97
I5
tp266
ssg22
g60
sg24
(lp267
(I97
I7
tp268
a(I99
I7
tp269
asg26
(lp270
sg29
g255
sg30
g60
sbs(I104
I2
tp271
(isquare
square
p272
(dp273
g7
(dp274
g9
Nsg11
(I104
I3
tp275
sg13
Nsg15
(I104
I1
tp276
sg17
Nsg21
(I103
I1
tp277
sg20
(I103
I3
tp278
sg19
(I103
I2
tp279
ssg22
g23
sg24
(lp280
sg26
(lp281
(I104
I1
tp282
asg29
g271
sg30
g31
sbs(I103
I5
tp283
(isquare
square
p284
(dp285
g7
(dp286
g9
(I104
I5
tp287
sg11
(I103
I6
tp288
sg13
(I104
I4
tp289
sg15
(I103
I4
tp290
sg17
(I104
I6
tp291
sg19
(I102
I5
tp292
sg20
(I102
I6
tp293
sg21
(I102
I4
tp294
ssg22
g60
sg24
(lp295
sg26
(lp296
sg29
g283
sg30
g60
sbs(I103
I1
tp297
(isquare
square
p298
(dp299
g7
(dp300
g13
Nsg11
(I103
I2
tp301
sg9
(I104
I1
tp302
sg15
Nsg17
(I104
I2
tp303
sg21
Nsg20
(I102
I2
tp304
sg19
(I102
I1
tp305
ssg22
g23
sg24
(lp306
sg26
(lp307
g282
asg29
g297
sg30
S'Knight'
p308
sbs(I100
I5
tp309
(isquare
square
p310
(dp311
g7
(dp312
g9
(I101
I5
tp313
sg11
(I100
I6
tp314
sg13
(I101
I4
tp315
sg15
(I100
I4
tp316
sg17
(I101
I6
tp317
sg19
(I99
I5
tp318
sg20
(I99
I6
tp319
sg21
(I99
I4
tp320
ssg22
g60
sg24
(lp321
sg26
(lp322
sg29
g309
sg30
g60
sbs(I101
I2
tp323
(isquare
square
p324
(dp325
g7
(dp326
g9
(I102
I2
tp327
sg11
(I101
I3
tp328
sg13
(I102
I1
tp329
sg15
(I101
I1
tp330
sg17
(I102
I3
tp331
sg19
(I100
I2
tp332
sg20
(I100
I3
tp333
sg21
(I100
I1
tp334
ssg22
g23
sg24
(lp335
sg26
(lp336
g254
ag131
ag201
a(I102
I1
tp337
asg29
g323
sg30
g31
sbs(I97
I4
tp338
(isquare
square
p339
(dp340
g7
(dp341
g9
(I98
I4
tp342
sg11
(I97
I5
tp343
sg13
(I98
I3
tp344
sg15
(I97
I3
tp345
sg17
(I98
I5
tp346
sg19
Nsg20
Nsg21
Nssg22
g60
sg24
(lp347
sg26
(lp348
sg29
g338
sg30
g60
sbs(I102
I2
tp349
(isquare
square
p350
(dp351
g7
(dp352
g9
(I103
I2
tp353
sg11
(I102
I3
tp354
sg13
(I103
I1
tp355
sg15
(I102
I1
tp356
sg17
(I103
I3
tp357
sg19
(I101
I2
tp358
sg20
(I101
I3
tp359
sg21
(I101
I1
tp360
ssg22
g23
sg24
(lp361
sg26
(lp362
g201
asg29
g349
sg30
g31
sbs(I98
I3
tp363
(isquare
square
p364
(dp365
g7
(dp366
g9
(I99
I3
tp367
sg11
(I98
I4
tp368
sg13
(I99
I2
tp369
sg15
(I98
I2
tp370
sg17
(I99
I4
tp371
sg19
(I97
I3
tp372
sg20
(I97
I4
tp373
sg21
(I97
I2
tp374
ssg22
g60
sg24
(lp375
sg26
(lp376
(I97
I2
tp377
a(I99
I2
tp378
asg29
g363
sg30
g60
sbs(I104
I7
tp379
(isquare
square
p380
(dp381
g7
(dp382
g9
Nsg11
(I104
I8
tp383
sg13
Nsg15
(I104
I6
tp384
sg17
Nsg21
(I103
I6
tp385
sg20
(I103
I8
tp386
sg19
(I103
I7
tp387
ssg22
g44
sg24
(lp388
(I104
I8
tp389
asg26
(lp390
sg29
g379
sg30
g31
sbs(I100
I2
tp391
(isquare
square
p392
(dp393
g7
(dp394
g9
(I101
I2
tp395
sg11
(I100
I3
tp396
sg13
(I101
I1
tp397
sg15
(I100
I1
tp398
sg17
(I101
I3
tp399
sg19
(I99
I2
tp400
sg20
(I99
I3
tp401
sg21
(I99
I1
tp402
ssg22
g23
sg24
(lp403
sg26
(lp404
g254
ag201
ag176
ag65
asg29
g391
sg30
g31
sbs(I102
I5
tp405
(isquare
square
p406
(dp407
g7
(dp408
g9
(I103
I5
tp409
sg11
(I102
I6
tp410
sg13
(I103
I4
tp411
sg15
(I102
I4
tp412
sg17
(I103
I6
tp413
sg19
(I101
I5
tp414
sg20
(I101
I6
tp415
sg21
(I101
I4
tp416
ssg22
g60
sg24
(lp417
sg26
(lp418
sg29
g405
sg30
g60
sbs(I99
I5
tp419
(isquare
square
p420
(dp421
g7
(dp422
g9
(I100
I5
tp423
sg11
(I99
I6
tp424
sg13
(I100
I4
tp425
sg15
(I99
I4
tp426
sg17
(I100
I6
tp427
sg19
(I98
I5
tp428
sg20
(I98
I6
tp429
sg21
(I98
I4
tp430
ssg22
g60
sg24
(lp431
sg26
(lp432
sg29
g419
sg30
g60
sbs(I98
I7
tp433
(isquare
square
p434
(dp435
g7
(dp436
g9
(I99
I7
tp437
sg11
(I98
I8
tp438
sg13
(I99
I6
tp439
sg15
(I98
I6
tp440
sg17
(I99
I8
tp441
sg19
(I97
I7
tp442
sg20
(I97
I8
tp443
sg21
(I97
I6
tp444
ssg22
g44
sg24
(lp445
(I99
I8
tp446
asg26
(lp447
sg29
g433
sg30
g31
sbs(I104
I3
tp448
(isquare
square
p449
(dp450
g7
(dp451
g9
Nsg11
(I104
I4
tp452
sg13
Nsg15
(I104
I2
tp453
sg17
Nsg21
(I103
I2
tp454
sg20
(I103
I4
tp455
sg19
(I103
I3
tp456
ssg22
g60
sg24
(lp457
sg26
(lp458
g131
ag133
asg29
g448
sg30
g60
sbs(I101
I7
tp459
(isquare
square
p460
(dp461
g7
(dp462
g9
(I102
I7
tp463
sg11
(I101
I8
tp464
sg13
(I102
I6
tp465
sg15
(I101
I6
tp466
sg17
(I102
I8
tp467
sg19
(I100
I7
tp468
sg20
(I100
I8
tp469
sg21
(I100
I6
tp470
ssg22
g44
sg24
(lp471
g187
a(I102
I8
tp472
a(I100
I8
tp473
ag46
asg26
(lp474
sg29
g459
sg30
g31
sbs(I100
I6
tp475
(isquare
square
p476
(dp477
g7
(dp478
g9
(I101
I6
tp479
sg11
(I100
I7
tp480
sg13
(I101
I5
tp481
sg15
(I100
I5
tp482
sg17
(I101
I7
tp483
sg19
(I99
I6
tp484
sg20
(I99
I7
tp485
sg21
(I99
I5
tp486
ssg22
g60
sg24
(lp487
(I101
I7
tp488
ag269
asg26
(lp489
sg29
g475
sg30
g60
sbs(I102
I1
tp490
(isquare
square
p491
(dp492
g7
(dp493
g13
Nsg11
(I102
I2
tp494
sg9
(I103
I1
tp495
sg15
Nsg17
(I103
I2
tp496
sg21
Nsg20
(I101
I2
tp497
sg19
(I101
I1
tp498
ssg22
g23
sg24
(lp499
sg26
(lp500
g254
ag201
asg29
g490
sg30
S'Bishop'
p501
sbs(I99
I1
tp502
(isquare
square
p503
(dp504
g7
(dp505
g13
Nsg11
(I99
I2
tp506
sg9
(I100
I1
tp507
sg15
Nsg17
(I100
I2
tp508
sg21
Nsg20
(I98
I2
tp509
sg19
(I98
I1
tp510
ssg22
g23
sg24
(lp511
sg26
(lp512
g254
asg29
g502
sg30
g501
sbs(I101
I4
tp513
(isquare
square
p514
(dp515
g7
(dp516
g9
(I102
I4
tp517
sg11
(I101
I5
tp518
sg13
(I102
I3
tp519
sg15
(I101
I3
tp520
sg17
(I102
I5
tp521
sg19
(I100
I4
tp522
sg20
(I100
I5
tp523
sg21
(I100
I3
tp524
ssg22
g60
sg24
(lp525
sg26
(lp526
sg29
g513
sg30
g60
sbs(I99
I8
tp527
(isquare
square
p528
(dp529
g7
(dp530
g9
(I100
I8
tp531
sg11
Nsg13
(I100
I7
tp532
sg15
(I99
I7
tp533
sg17
Nsg21
(I98
I7
tp534
sg20
Nsg19
(I98
I8
tp535
ssg22
g44
sg24
(lp536
g473
asg26
(lp537
sg29
g527
sg30
g501
sbs(I97
I8
tp538
(isquare
square
p539
(dp540
g7
(dp541
g9
(I98
I8
tp542
sg11
Nsg13
(I98
I7
tp543
sg15
(I97
I7
tp544
sg17
Nsg19
Nsg20
Nsg21
Nssg22
g44
sg24
(lp545
sg26
(lp546
sg29
g538
sg30
g75
sbs(I104
I8
tp547
(isquare
square
p548
(dp549
g7
(dp550
g9
Nsg11
Nsg13
Nsg15
(I104
I7
tp551
sg17
Nsg21
(I103
I7
tp552
sg20
Nsg19
(I103
I8
tp553
ssg22
g44
sg24
(lp554
sg26
(lp555
sg29
g547
sg30
g75
sbs(I100
I3
tp556
(isquare
square
p557
(dp558
g7
(dp559
g9
(I101
I3
tp560
sg11
(I100
I4
tp561
sg13
(I101
I2
tp562
sg15
(I100
I2
tp563
sg17
(I101
I4
tp564
sg19
(I99
I3
tp565
sg20
(I99
I4
tp566
sg21
(I99
I2
tp567
ssg22
g60
sg24
(lp568
sg26
(lp569
g378
ag132
asg29
g556
sg30
g60
sbs(I97
I7
tp570
(isquare
square
p571
(dp572
g7
(dp573
g9
(I98
I7
tp574
sg11
(I97
I8
tp575
sg13
(I98
I6
tp576
sg15
(I97
I6
tp577
sg17
(I98
I8
tp578
sg19
Nsg20
Nsg21
Nssg22
g44
sg24
(lp579
(I97
I8
tp580
asg26
(lp581
sg29
g570
sg30
g31
sbs(I99
I4
tp582
(isquare
square
p583
(dp584
g7
(dp585
g9
(I100
I4
tp586
sg11
(I99
I5
tp587
sg13
(I100
I3
tp588
sg15
(I99
I3
tp589
sg17
(I100
I5
tp590
sg19
(I98
I4
tp591
sg20
(I98
I5
tp592
sg21
(I98
I3
tp593
ssg22
g60
sg24
(lp594
sg26
(lp595
sg29
g582
sg30
g60
sbs(I98
I4
tp596
(isquare
square
p597
(dp598
g7
(dp599
g9
(I99
I4
tp600
sg11
(I98
I5
tp601
sg13
(I99
I3
tp602
sg15
(I98
I3
tp603
sg17
(I99
I5
tp604
sg19
(I97
I4
tp605
sg20
(I97
I5
tp606
sg21
(I97
I3
tp607
ssg22
g60
sg24
(lp608
sg26
(lp609
sg29
g596
sg30
g60
sbs(I104
I4
tp610
(isquare
square
p611
(dp612
g7
(dp613
g9
Nsg11
(I104
I5
tp614
sg13
Nsg15
(I104
I3
tp615
sg17
Nsg21
(I103
I3
tp616
sg20
(I103
I5
tp617
sg19
(I103
I4
tp618
ssg22
g60
sg24
(lp619
sg26
(lp620
sg29
g610
sg30
g60
sbs(I103
I3
tp621
(isquare
square
p622
(dp623
g7
(dp624
g9
(I104
I3
tp625
sg11
(I103
I4
tp626
sg13
(I104
I2
tp627
sg15
(I103
I2
tp628
sg17
(I104
I4
tp629
sg19
(I102
I3
tp630
sg20
(I102
I4
tp631
sg21
(I102
I2
tp632
ssg22
g60
sg24
(lp633
sg26
(lp634
(I104
I2
tp635
a(I102
I2
tp636
asg29
g621
sg30
g60
sbs(I100
I7
tp637
(isquare
square
p638
(dp639
g7
(dp640
g9
(I101
I7
tp641
sg11
(I100
I8
tp642
sg13
(I101
I6
tp643
sg15
(I100
I6
tp644
sg17
(I101
I8
tp645
sg19
(I99
I7
tp646
sg20
(I99
I8
tp647
sg21
(I99
I6
tp648
ssg22
g44
sg24
(lp649
g446
ag473
ag160
ag46
asg26
(lp650
sg29
g637
sg30
g31
sbs(I97
I3
tp651
(isquare
square
p652
(dp653
g7
(dp654
g9
(I98
I3
tp655
sg11
(I97
I4
tp656
sg13
(I98
I2
tp657
sg15
(I97
I2
tp658
sg17
(I98
I4
tp659
sg19
Nsg20
Nsg21
Nssg22
g60
sg24
(lp660
sg26
(lp661
g63
ag65
asg29
g651
sg30
g60
sbs(I100
I8
tp662
(isquare
square
p663
(dp664
g7
(dp665
g9
(I101
I8
tp666
sg11
Nsg13
(I101
I7
tp667
sg15
(I100
I7
tp668
sg17
Nsg21
(I99
I7
tp669
sg20
Nsg19
(I99
I8
tp670
ssg22
g44
sg24
(lp671
g46
asg26
(lp672
sg29
g662
sg30
g202
sbs(I101
I6
tp673
(isquare
square
p674
(dp675
g7
(dp676
g9
(I102
I6
tp677
sg11
(I101
I7
tp678
sg13
(I102
I5
tp679
sg15
(I101
I5
tp680
sg17
(I102
I7
tp681
sg19
(I100
I6
tp682
sg20
(I100
I7
tp683
sg21
(I100
I5
tp684
ssg22
g60
sg24
(lp685
g100
ag159
asg26
(lp686
sg29
g673
sg30
g60
sbs(I98
I8
tp687
(isquare
square
p688
(dp689
g7
(dp690
g9
(I99
I8
tp691
sg11
Nsg13
(I99
I7
tp692
sg15
(I98
I7
tp693
sg17
Nsg21
(I97
I7
tp694
sg20
Nsg19
(I97
I8
tp695
ssg22
g44
sg24
(lp696
g580
asg26
(lp697
sg29
g687
sg30
g308
sbs(I102
I8
tp698
(isquare
square
p699
(dp700
g7
(dp701
g9
(I103
I8
tp702
sg11
Nsg13
(I103
I7
tp703
sg15
(I102
I7
tp704
sg17
Nsg21
(I101
I7
tp705
sg20
Nsg19
(I101
I8
tp706
ssg22
g44
sg24
(lp707
g473
ag46
asg26
(lp708
sg29
g698
sg30
g501
sbs(I102
I6
tp709
(isquare
square
p710
(dp711
g7
(dp712
g9
(I103
I6
tp713
sg11
(I102
I7
tp714
sg13
(I103
I5
tp715
sg15
(I102
I5
tp716
sg17
(I103
I7
tp717
sg19
(I101
I6
tp718
sg20
(I101
I7
tp719
sg21
(I101
I5
tp720
ssg22
g60
sg24
(lp721
g187
ag488
ag188
asg26
(lp722
sg29
g709
sg30
g60
sbs(I103
I7
tp723
(isquare
square
p724
(dp725
g7
(dp726
g9
(I104
I7
tp727
sg11
(I103
I8
tp728
sg13
(I104
I6
tp729
sg15
(I103
I6
tp730
sg17
(I104
I8
tp731
sg19
(I102
I7
tp732
sg20
(I102
I8
tp733
sg21
(I102
I6
tp734
ssg22
g44
sg24
(lp735
g472
asg26
(lp736
sg29
g723
sg30
g31
sbs(I98
I1
tp737
(isquare
square
p738
(dp739
g7
(dp740
g13
Nsg11
(I98
I2
tp741
sg9
(I99
I1
tp742
sg15
Nsg17
(I99
I2
tp743
sg21
Nsg20
(I97
I2
tp744
sg19
(I97
I1
tp745
ssg22
g23
sg24
(lp746
sg26
(lp747
g28
asg29
g737
sg30
g308
sbs(I101
I1
tp748
(isquare
square
p749
(dp750
g7
(dp751
g13
Nsg11
(I101
I2
tp752
sg9
(I102
I1
tp753
sg15
Nsg17
(I102
I2
tp754
sg21
Nsg20
(I100
I2
tp755
sg19
(I100
I1
tp756
ssg22
g23
sg24
(lp757
sg26
(lp758
g254
asg29
g748
sg30
S'King'
p759
sbs(I97
I6
tp760
(isquare
square
p761
(dp762
g7
(dp763
g9
(I98
I6
tp764
sg11
(I97
I7
tp765
sg13
(I98
I5
tp766
sg15
(I97
I5
tp767
sg17
(I98
I7
tp768
sg19
Nsg20
Nsg21
Nssg22
g60
sg24
(lp769
g158
ag160
asg26
(lp770
sg29
g760
sg30
g60
sbs(I103
I2
tp771
(isquare
square
p772
(dp773
g7
(dp774
g9
(I104
I2
tp775
sg11
(I103
I3
tp776
sg13
(I104
I1
tp777
sg15
(I103
I1
tp778
sg17
(I104
I3
tp779
sg19
(I102
I2
tp780
sg20
(I102
I3
tp781
sg21
(I102
I1
tp782
ssg22
g23
sg24
(lp783
sg26
(lp784
g337
asg29
g771
sg30
g31
sbs(I99
I7
tp785
(isquare
square
p786
(dp787
g7
(dp788
g9
(I100
I7
tp789
sg11
(I99
I8
tp790
sg13
(I100
I6
tp791
sg15
(I99
I6
tp792
sg17
(I100
I8
tp793
sg19
(I98
I7
tp794
sg20
(I98
I8
tp795
sg21
(I98
I6
tp796
ssg22
g44
sg24
(lp797
g473
asg26
(lp798
sg29
g785
sg30
g31
sbs(I98
I5
tp799
(isquare
square
p800
(dp801
g7
(dp802
g9
(I99
I5
tp803
sg11
(I98
I6
tp804
sg13
(I99
I4
tp805
sg15
(I98
I4
tp806
sg17
(I99
I6
tp807
sg19
(I97
I5
tp808
sg20
(I97
I6
tp809
sg21
(I97
I4
tp810
ssg22
g60
sg24
(lp811
sg26
(lp812
sg29
g799
sg30
g60
sbs(I101
I3
tp813
(isquare
square
p814
(dp815
g7
(dp816
g9
(I102
I3
tp817
sg11
(I101
I4
tp818
sg13
(I102
I2
tp819
sg15
(I101
I2
tp820
sg17
(I102
I4
tp821
sg19
(I100
I3
tp822
sg20
(I100
I4
tp823
sg21
(I100
I2
tp824
ssg22
g60
sg24
(lp825
sg26
(lp826
g64
ag636
asg29
g813
sg30
g60
sbs(I103
I8
tp827
(isquare
square
p828
(dp829
g7
(dp830
g9
(I104
I8
tp831
sg11
Nsg13
(I104
I7
tp832
sg15
(I103
I7
tp833
sg17
Nsg21
(I102
I7
tp834
sg20
Nsg19
(I102
I8
tp835
ssg22
g44
sg24
(lp836
g389
asg26
(lp837
sg29
g827
sg30
g308
sbs(I101
I8
tp838
(isquare
square
p839
(dp840
g7
(dp841
g9
(I102
I8
tp842
sg11
Nsg13
(I102
I7
tp843
sg15
(I101
I7
tp844
sg17
Nsg21
(I100
I7
tp845
sg20
Nsg19
(I100
I8
tp846
ssg22
g44
sg24
(lp847
g473
asg26
(lp848
sg29
g838
sg30
g759
sbs(I103
I4
tp849
(isquare
square
p850
(dp851
g7
(dp852
g9
(I104
I4
tp853
sg11
(I103
I5
tp854
sg13
(I104
I3
tp855
sg15
(I103
I3
tp856
sg17
(I104
I5
tp857
sg19
(I102
I4
tp858
sg20
(I102
I5
tp859
sg21
(I102
I3
tp860
ssg22
g60
sg24
(lp861
sg26
(lp862
sg29
g849
sg30
g60
sbssS'temp'
p863
NsS'kings'
p864
(dp865
g44
(I101
I8
tp866
sg23
(I101
I1
tp867
ssS'turnCount'
p868
I0
sS'whitesTurn'
p869
I01
sS'moves'
p870
(lp871
(imove
move
p872
(dp873
S'start'
p874
(I101
I2
tp875
sS'end'
p876
(I101
I4
tp877
sS'type'
p878
S'normal'
p879
sba(imove
move
p880
(dp881
g874
(I101
I7
tp882
sg876
(I101
I5
tp883
sg878
g879
sba(imove
move
p884
(dp885
g874
(I103
I1
tp886
sg876
(I102
I3
tp887
sg878
g879
sba(imove
move
p888
(dp889
g874
(I97
I7
tp890
sg876
(I97
I5
tp891
sg878
g879
sba(imove
move
p892
(dp893
S'start'
p894
(I101
I2
tp895
sS'end'
p896
(I101
I4
tp897
sS'type'
p898
S'normal'
p899
sba(imove
move
p900
(dp901
g894
(I101
I7
tp902
sg896
(I101
I5
tp903
sg898
g899
sba(imove
move
p904
(dp905
g894
(I103
I1
tp906
sg896
(I102
I3
tp907
sg898
g899
sba(imove
move
p908
(dp909
g894
(I102
I7
tp910
sg896
(I102
I5
tp911
sg898
g899
sba(imove
move
p912
(dp913
g894
(I101
I4
tp914
sg896
(I102
I5
tp915
sg898
g899
sba(imove
move
p916
(dp917
g894
(I103
I7
tp918
sg896
(I103
I6
tp919
sg898
g899
sba(imove
move
p920
(dp921
g894
(I102
I5
tp922
sg896
(I103
I6
tp923
sg898
g899
sba(imove
move
p924
(dp925
g894
(I102
I8
tp926
sg896
(I101
I7
tp927
sg898
g899
sba(imove
move
p928
(dp929
g894
(I103
I6
tp930
sg896
(I104
I7
tp931
sg898
g899
sba(imove
move
p932
(dp933
g894
(I100
I7
tp934
sg896
(I100
I6
tp935
sg898
g899
sba(imove
move
p936
(dp937
g894
(I104
I7
tp938
sg896
(I103
I8
tp939
sg898
g899
sba(imove
move
p940
(dp941
S'start'
p942
(I101
I2
tp943
sS'end'
p944
(I101
I4
tp945
sS'type'
p946
S'normal'
p947
sba(imove
move
p948
(dp949
g942
(I102
I7
tp950
sg944
(I102
I5
tp951
sg946
g947
sba(imove
move
p952
(dp953
g942
(I101
I4
tp954
sg944
(I102
I5
tp955
sg946
g947
sba(imove
move
p956
(dp957
g942
(I103
I7
tp958
sg944
(I103
I6
tp959
sg946
g947
sba(imove
move
p960
(dp961
g942
(I102
I5
tp962
sg944
(I103
I6
tp963
sg946
g947
sba(imove
move
p964
(dp965
g942
(I101
I7
tp966
sg944
(I101
I6
tp967
sg946
g947
sba(imove
move
p968
(dp969
g942
(I103
I6
tp970
sg944
(I104
I7
tp971
sg946
g947
sba(imove
move
p972
(dp973
g942
(I100
I7
tp974
sg944
(I100
I6
tp975
sg946
g947
sba(imove
move
p976
(dp977
g942
(I104
I7
tp978
sg944
(I103
I8
tp979
sg946
g947
sba(imove
move
p980
(dp981
S'start'
p982
(I101
I2
tp983
sS'end'
p984
(I101
I4
tp985
sS'type'
p986
S'normal'
p987
sba(imove
move
p988
(dp989
g982
(I102
I7
tp990
sg984
(I102
I5
tp991
sg986
g987
sba(imove
move
p992
(dp993
g982
(I101
I4
tp994
sg984
(I102
I5
tp995
sg986
g987
sba(imove
move
p996
(dp997
g982
(I103
I7
tp998
sg984
(I103
I6
tp999
sg986
g987
sba(imove
move
p1000
(dp1001
g982
(I102
I5
tp1002
sg984
(I103
I6
tp1003
sg986
g987
sba(imove
move
p1004
(dp1005
g982
(I101
I7
tp1006
sg984
(I101
I6
tp1007
sg986
g987
sba(imove
move
p1008
(dp1009
g982
(I103
I6
tp1010
sg984
(I104
I7
tp1011
sg986
g987
sba(imove
move
p1012
(dp1013
g982
(I102
I8
tp1014
sg984
(I101
I7
tp1015
sg986
g987
sba(imove
move
p1016
(dp1017
S'start'
p1018
(I101
I2
tp1019
sS'end'
p1020
(I101
I4
tp1021
sS'type'
p1022
S'normal'
p1023
sba(imove
move
p1024
(dp1025
g1018
(I100
I7
tp1026
sg1020
(I100
I5
tp1027
sg1022
g1023
sba(imove
move
p1028
(dp1029
g1018
(I101
I4
tp1030
sg1020
(I100
I5
tp1031
sg1022
g1023
sba(imove
move
p1032
(dp1033
g1018
(I99
I7
tp1034
sg1020
(I99
I6
tp1035
sg1022
g1023
sba(imove
move
p1036
(dp1037
g1018
(I100
I5
tp1038
sg1020
(I99
I6
tp1039
sg1022
g1023
sba(imove
move
p1040
(dp1041
g1018
(I100
I8
tp1042
sg1020
(I100
I2
tp1043
sg1022
g1023
sba(imove
move
p1044
(dp1045
S'start'
p1046
(I99
I1
tp1047
sS'end'
p1048
(I100
I2
tp1049
sS'type'
p1050
S'normal'
p1051
sba(imove
move
p1052
(dp1053
g1046
(I101
I7
tp1054
sg1048
(I101
I6
tp1055
sg1050
g1051
sba(imove
move
p1056
(dp1057
g1046
(I99
I2
tp1058
sg1048
(I99
I4
tp1059
sg1050
g1051
sba(imove
move
p1060
(dp1061
g1046
(I98
I7
tp1062
sg1048
(I98
I5
tp1063
sg1050
g1051
sba(imove
move
p1064
(dp1065
g1046
(I98
I2
tp1066
sg1048
(I98
I3
tp1067
sg1050
g1051
sba(imove
move
p1068
(dp1069
g1046
(I98
I5
tp1070
sg1048
(I99
I4
tp1071
sg1050
g1051
sba(imove
move
p1072
(dp1073
g1046
(I99
I6
tp1074
sg1048
(I99
I7
tp1075
sg1050
g1051
sba(imove
move
p1076
(dp1077
g1046
(I99
I4
tp1078
sg1048
(I98
I3
tp1079
sg1050
g1051
sba(imove
move
p1080
(dp1081
g1046
(I99
I7
tp1082
sg1048
(I98
I8
tp1083
sg1050
g1051
sba(imove
move
p1084
(dp1085
g1046
(I97
I8
tp1086
sg1048
(I98
I8
tp1087
sg1050
g1051
sba(imove
move
p1088
(dp1089
g1046
(I100
I2
tp1090
sg1048
(I103
I5
tp1091
sg1050
g1051
sba(imove
move
p1092
(dp1093
g1046
(I98
I3
tp1094
sg1048
(I97
I2
tp1095
sg1050
g1051
sba(imove
move
p1096
(dp1097
g1046
(I97
I1
tp1098
sg1048
(I97
I2
tp1099
sg1050
g1051
sba(imove
move
p1100
(dp1101
g1046
(I98
I8
tp1102
sg1048
(I98
I1
tp1103
sg1050
g1051
sba(imove
move
p1104
(dp1105
g1046
(I97
I2
tp1106
sg1048
(I97
I7
tp1107
sg1050
g1051
sba(imove
move
p1108
(dp1109
g1046
(I98
I1
tp1110
sg1048
(I100
I1
tp1111
sg1050
g1051
sba(imove
move
p1112
(dp1113
g1046
(I101
I1
tp1114
sg1048
(I100
I1
tp1115
sg1050
g1051
sba(imove
move
p1116
(dp1117
g1046
(I102
I8
tp1118
sg1048
(I97
I3
tp1119
sg1050
g1051
sba(imove
move
p1120
(dp1121
g1046
(I102
I1
tp1122
sg1048
(I99
I4
tp1123
sg1050
g1051
sba(imove
move
p1124
(dp1125
g1046
(I103
I8
tp1126
sg1048
(I102
I6
tp1127
sg1050
g1051
sba(imove
move
p1128
(dp1129
g1046
(I99
I4
tp1130
sg1048
(I101
I6
tp1131
sg1050
g1051
sba(imove
move
p1132
(dp1133
g1046
(I99
I8
tp1134
sg1048
(I101
I6
tp1135
sg1050
g1051
sba(imove
move
p1136
(dp1137
g1046
(I103
I1
tp1138
sg1048
(I102
I3
tp1139
sg1050
g1051
sba(imove
move
p1140
(dp1141
g1046
(I101
I8
tp1142
sg1048
(I103
I8
tp1143
sg1050
S'castle'
p1144
sba(imove
move
p1145
(dp1146
g1046
(I97
I7
tp1147
sg1048
(I97
I8
tp1148
sg1050
g1051
sba(imove
move
p1149
(dp1150
g1046
(I101
I6
tp1151
sg1048
(I100
I5
tp1152
sg1050
g1051
sba(imove
move
p1153
(dp1154
g1046
(I102
I3
tp1155
sg1048
(I101
I5
tp1156
sg1050
g1051
sba(imove
move
p1157
(dp1158
g1046
(I100
I5
tp1159
sg1048
(I103
I2
tp1160
sg1050
g1051
sba(imove
move
p1161
(dp1162
g1046
(I101
I5
tp1163
sg1048
(I102
I7
tp1164
sg1050
g1051
sba(imove
move
p1165
(dp1166
g1046
(I102
I6
tp1167
sg1048
(I101
I4
tp1168
sg1050
g1051
sba(imove
move
p1169
(dp1170
g1046
(I102
I2
tp1171
sg1048
(I102
I3
tp1172
sg1050
g1051
sba(imove
move
p1173
(dp1174
g1046
(I101
I4
tp1175
sg1048
(I103
I5
tp1176
sg1050
g1051
sba(imove
move
p1177
(dp1178
g1046
(I104
I2
tp1179
sg1048
(I104
I3
tp1180
sg1050
g1051
sba(imove
move
p1181
(dp1182
S'start'
p1183
(I103
I5
tp1184
sS'end'
p1185
(I102
I7
tp1186
sS'type'
p1187
S'normal'
p1188
sba(imove
move
p1189
(dp1190
g1183
(I104
I3
tp1191
sg1185
(I104
I4
tp1192
sg1187
g1188
sba(imove
move
p1193
(dp1194
g1183
(I103
I2
tp1195
sg1185
(I102
I3
tp1196
sg1187
g1188
sba(imove
move
p1197
(dp1198
g1183
(I100
I1
tp1199
sg1185
(I99
I2
tp1200
sg1187
g1188
sba(imove
move
p1201
(dp1202
g1183
(I102
I7
tp1203
sg1185
(I103
I5
tp1204
sg1187
g1188
sba(imove
move
p1205
(dp1206
g1183
(I104
I1
tp1207
sg1185
(I102
I1
tp1208
sg1187
g1188
sba(imove
move
p1209
(dp1210
g1183
(I104
I7
tp1211
sg1185
(I104
I6
tp1212
sg1187
g1188
sba(imove
move
p1213
(dp1214
g1183
(I102
I1
tp1215
sg1185
(I102
I3
tp1216
sg1187
g1188
sba(imove
move
p1217
(dp1218
g1183
(I103
I5
tp1219
sg1185
(I102
I3
tp1220
sg1187
g1188
sba(imove
move
p1221
(dp1222
g1183
(I99
I2
tp1223
sg1185
(I100
I1
tp1224
sg1187
g1188
sba(imove
move
p1225
(dp1226
g1183
(I102
I3
tp1227
sg1185
(I103
I5
tp1228
sg1187
g1188
sba(imove
move
p1229
(dp1230
g1183
(I104
I4
tp1231
sg1185
(I103
I5
tp1232
sg1187
g1188
sba(imove
move
p1233
(dp1234
g1183
(I102
I8
tp1235
sg1185
(I99
I8
tp1236
sg1187
g1188
sba(imove
move
p1237
(dp1238
g1183
(I103
I5
tp1239
sg1185
(I104
I6
tp1240
sg1187
g1188
sba(imove
move
p1241
(dp1242
g1183
(I103
I7
tp1243
sg1185
(I104
I6
tp1244
sg1187
g1188
sba(imove
move
p1245
(dp1246
g1183
(I97
I8
tp1247
sg1185
(I99
I8
tp1248
sg1187
g1188
sba(imove
move
p1249
(dp1250
g1183
(I103
I8
tp1251
sg1185
(I102
I7
tp1252
sg1187
g1188
sba(imove
move
p1253
(dp1254
g1183
(I99
I8
tp1255
sg1185
(I104
I8
tp1256
sg1187
g1188
sba(imove
move
p1257
(dp1258
g1183
(I97
I3
tp1259
sg1185
(I100
I6
tp1260
sg1187
g1188
sba(imove
move
p1261
(dp1262
g1183
(I100
I1
tp1263
sg1185
(I99
I2
tp1264
sg1187
g1188
sba(imove
move
p1265
(dp1266
g1183
(I102
I7
tp1267
sg1185
(I101
I7
tp1268
sg1187
g1188
sba(imove
move
p1269
(dp1270
g1183
(I99
I2
tp1271
sg1185
(I99
I3
tp1272
sg1187
g1188
sba(imove
move
p1273
(dp1274
g1183
(I100
I6
tp1275
sg1185
(I98
I8
tp1276
sg1187
g1188
sba(imove
move
p1277
(dp1278
g1183
(I99
I3
tp1279
sg1185
(I99
I4
tp1280
sg1187
g1188
sba(imove
move
p1281
(dp1282
g1183
(I101
I7
tp1283
sg1185
(I100
I7
tp1284
sg1187
g1188
sba(imove
move
p1285
(dp1286
g1183
(I99
I4
tp1287
sg1185
(I99
I5
tp1288
sg1187
g1188
sba(imove
move
p1289
(dp1290
g1183
(I100
I7
tp1291
sg1185
(I99
I7
tp1292
sg1187
g1188
sba(imove
move
p1293
(dp1294
g1183
(I104
I8
tp1295
sg1185
(I104
I6
tp1296
sg1187
g1188
sba(imove
move
p1297
(dp1298
g1183
(I99
I7
tp1299
sg1185
(I98
I7
tp1300
sg1187
g1188
sba(imove
move
p1301
(dp1302
g1183
(I104
I6
tp1303
sg1185
(I104
I8
tp1304
sg1187
g1188
sba(imove
move
p1305
(dp1306
g1183
(I98
I7
tp1307
sg1185
(I97
I8
tp1308
sg1187
g1188
sba(imove
move
p1309
(dp1310
S'start'
p1311
(I99
I5
tp1312
sS'end'
p1313
(I98
I6
tp1314
sS'type'
p1315
S'normal'
p1316
sba(imove
move
p1317
(dp1318
S'start'
p1319
(I101
I2
tp1320
sS'end'
p1321
(I101
I4
tp1322
sS'type'
p1323
S'normal'
p1324
sba(imove
move
p1325
(dp1326
g1319
(I100
I7
tp1327
sg1321
(I100
I5
tp1328
sg1323
g1324
sba(imove
move
p1329
(dp1330
g1319
(I101
I4
tp1331
sg1321
(I100
I5
tp1332
sg1323
g1324
sba(imove
move
p1333
(dp1334
g1319
(I99
I7
tp1335
sg1321
(I99
I6
tp1336
sg1323
g1324
sba(imove
move
p1337
(dp1338
g1319
(I100
I5
tp1339
sg1321
(I99
I6
tp1340
sg1323
g1324
sba(imove
move
p1341
(dp1342
g1319
(I98
I8
tp1343
sg1321
(I99
I6
tp1344
sg1323
g1324
sba(imove
move
p1345
(dp1346
g1319
(I100
I2
tp1347
sg1321
(I100
I4
tp1348
sg1323
g1324
sba(imove
move
p1349
(dp1350
g1319
(I99
I6
tp1351
sg1321
(I100
I4
tp1352
sg1323
g1324
sba(imove
move
p1353
(dp1354
g1319
(I100
I1
tp1355
sg1321
(I100
I4
tp1356
sg1323
g1324
sba(imove
move
p1357
(dp1358
g1319
(I100
I8
tp1359
sg1321
(I100
I4
tp1360
sg1323
g1324
sba(imove
move
p1361
(dp1362
g1319
(I99
I2
tp1363
sg1321
(I99
I3
tp1364
sg1323
g1324
sba(imove
move
p1365
(dp1366
g1319
(I100
I4
tp1367
sg1321
(I99
I3
tp1368
sg1323
g1324
sba(imove
move
p1369
(dp1370
g1319
(I98
I2
tp1371
sg1321
(I99
I3
tp1372
sg1323
g1324
sba(imove
move
p1373
(dp1374
g1319
(I99
I8
tp1375
sg1321
(I102
I5
tp1376
sg1323
g1324
sba(imove
move
p1377
(dp1378
g1319
(I99
I3
tp1379
sg1321
(I99
I4
tp1380
sg1323
g1324
sba(imove
move
p1381
(dp1382
g1319
(I98
I7
tp1383
sg1321
(I98
I5
tp1384
sg1323
g1324
sba(imove
move
p1385
(dp1386
g1319
(I99
I4
tp1387
sg1321
(I98
I5
tp1388
sg1323
g1324
sba(imove
move
p1389
(dp1390
g1319
(I97
I7
tp1391
sg1321
(I97
I6
tp1392
sg1323
g1324
sba(imove
move
p1393
(dp1394
g1319
(I98
I5
tp1395
sg1321
(I97
I6
tp1396
sg1323
g1324
sba(imove
move
p1397
(dp1398
g1319
(I97
I8
tp1399
sg1321
(I97
I6
tp1400
sg1323
g1324
sba(imove
move
p1401
(dp1402
g1319
(I98
I1
tp1403
sg1321
(I99
I3
tp1404
sg1323
g1324
sba(imove
move
p1405
(dp1406
g1319
(I97
I6
tp1407
sg1321
(I97
I2
tp1408
sg1323
g1324
sba(imove
move
p1409
(dp1410
g1319
(I97
I1
tp1411
sg1321
(I97
I2
tp1412
sg1323
g1324
sba(imove
move
p1413
(dp1414
g1319
(I103
I8
tp1415
sg1321
(I102
I6
tp1416
sg1323
g1324
sba(imove
move
p1417
(dp1418
g1319
(I99
I1
tp1419
sg1321
(I104
I6
tp1420
sg1323
g1324
sba(imove
move
p1421
(dp1422
g1319
(I103
I7
tp1423
sg1321
(I104
I6
tp1424
sg1323
g1324
sba(imove
move
p1425
(dp1426
g1319
(I103
I2
tp1427
sg1321
(I103
I4
tp1428
sg1323
g1324
sba(imove
move
p1429
(dp1430
g1319
(I102
I6
tp1431
sg1321
(I101
I4
tp1432
sg1323
g1324
sba(imove
move
p1433
(dp1434
g1319
(I103
I4
tp1435
sg1321
(I102
I5
tp1436
sg1323
g1324
sba(imove
move
p1437
(dp1438
g1319
(I101
I4
tp1439
sg1321
(I102
I2
tp1440
sg1323
g1324
sba(imove
move
p1441
(dp1442
g1319
(I102
I1
tp1443
sg1321
(I104
I3
tp1444
sg1323
g1324
sba(imove
move
p1445
(dp1446
g1319
(I101
I7
tp1447
sg1321
(I101
I6
tp1448
sg1323
g1324
sba(imove
move
p1449
(dp1450
g1319
(I102
I5
tp1451
sg1321
(I101
I6
tp1452
sg1323
g1324
sba(imove
move
p1453
(dp1454
g1319
(I102
I2
tp1455
sg1321
(I104
I1
tp1456
sg1323
g1324
sba(imove
move
p1457
(dp1458
g1319
(I101
I6
tp1459
sg1321
(I102
I7
tp1460
sg1323
g1324
sba(imove
move
p1461
(dp1462
g1319
(I101
I8
tp1463
sg1321
(I100
I8
tp1464
sg1323
g1324
sba(imove
move
p1465
(dp1466
g1319
(I104
I3
tp1467
sg1321
(I103
I2
tp1468
sg1323
g1324
sba(imove
move
p1469
(dp1470
g1319
(I104
I8
tp1471
sg1321
(I103
I8
tp1472
sg1323
g1324
sba(imove
move
p1473
(dp1474
g1319
(I102
I7
tp1475
sg1321
(I103
I8
tp1476
sg1323
g1324
sba(imove
move
p1477
(dp1478
g1319
(I104
I6
tp1479
sg1321
(I104
I5
tp1480
sg1323
g1324
sba(imove
move
p1481
(dp1482
S'start'
p1483
(I103
I2
tp1484
sS'end'
p1485
(I104
I1
tp1486
sS'type'
p1487
S'normal'
p1488
sba(imove
move
p1489
(dp1490
g1483
(I100
I8
tp1491
sg1485
(I99
I8
tp1492
sg1487
g1488
sba(imove
move
p1493
(dp1494
g1483
(I99
I3
tp1495
sg1485
(I101
I4
tp1496
sg1487
g1488
sba(imove
move
p1497
(dp1498
g1483
(I104
I5
tp1499
sg1485
(I104
I4
tp1500
sg1487
g1488
sba(imove
move
p1501
(dp1502
g1483
(I101
I4
tp1503
sg1485
(I103
I5
tp1504
sg1487
g1488
sba(imove
move
p1505
(dp1506
g1483
(I104
I7
tp1507
sg1485
(I104
I6
tp1508
sg1487
g1488
sba(imove
move
p1509
(dp1510
g1483
(I103
I1
tp1511
sg1485
(I102
I3
tp1512
sg1487
g1488
sba(imove
move
p1513
(dp1514
g1483
(I104
I6
tp1515
sg1485
(I103
I5
tp1516
sg1487
g1488
sba(imove
move
p1517
(dp1518
g1483
(I103
I8
tp1519
sg1485
(I104
I8
tp1520
sg1487
g1488
sba(imove
move
p1521
(dp1522
g1483
(I103
I5
tp1523
sg1485
(I103
I4
tp1524
sg1487
g1488
sba(imove
move
p1525
(dp1526
g1483
(I104
I8
tp1527
sg1485
(I104
I7
tp1528
sg1487
g1488
sba(imove
move
p1529
(dp1530
g1483
(I103
I4
tp1531
sg1485
(I102
I3
tp1532
sg1487
g1488
sba(imove
move
p1533
(dp1534
g1483
(I104
I1
tp1535
sg1485
(I102
I3
tp1536
sg1487
g1488
sba(imove
move
p1537
(dp1538
g1483
(I99
I8
tp1539
sg1485
(I98
I8
tp1540
sg1487
g1488
sba(imove
move
p1541
(dp1542
g1483
(I102
I3
tp1543
sg1485
(I103
I4
tp1544
sg1487
g1488
sba(imove
move
p1545
(dp1546
g1483
(I104
I4
tp1547
sg1485
(I104
I3
tp1548
sg1487
g1488
sba(imove
move
p1549
(dp1550
g1483
(I103
I4
tp1551
sg1485
(I104
I3
tp1552
sg1487
g1488
sba(imove
move
p1553
(dp1554
g1483
(I102
I8
tp1555
sg1485
(I100
I6
tp1556
sg1487
g1488
sba(imove
move
p1557
(dp1558
g1483
(I104
I3
tp1559
sg1485
(I99
I8
tp1560
sg1487
g1488
sba(imove
move
p1561
(dp1562
g1483
(I100
I6
tp1563
sg1485
(I104
I2
tp1564
sg1487
g1488
sba(imove
move
p1565
(dp1566
g1483
(I101
I1
tp1567
sg1485
(I101
I2
tp1568
sg1487
g1488
sba(imove
move
p1569
(dp1570
g1483
(I98
I8
tp1571
sg1485
(I99
I8
tp1572
sg1487
g1488
sba(imove
move
p1573
(dp1574
g1483
(I97
I2
tp1575
sg1485
(I97
I7
tp1576
sg1487
g1488
sba(imove
move
p1577
(dp1578
g1483
(I99
I8
tp1579
sg1485
(I98
I8
tp1580
sg1487
g1488
sba(imove
move
p1581
(dp1582
g1483
(I104
I7
tp1583
sg1485
(I104
I8
tp1584
sg1487
g1488
sba(imove
move
p1585
(dp1586
g1483
(I98
I8
tp1587
sg1485
(I97
I7
tp1588
sg1487
g1488
sba(imove
move
p1589
(dp1590
g1483
(I101
I2
tp1591
sg1485
(I100
I3
tp1592
sg1487
g1488
sba(imove
move
p1593
(dp1594
g1483
(I104
I2
tp1595
sg1485
(I98
I8
tp1596
sg1487
g1488
sba(imove
move
p1597
(dp1598
g1483
(I100
I3
tp1599
sg1485
(I99
I4
tp1600
sg1487
g1488
sba(imove
move
p1601
(dp1602
g1483
(I97
I7
tp1603
sg1485
(I97
I8
tp1604
sg1487
g1488
sba(imove
move
p1605
(dp1606
g1483
(I99
I4
tp1607
sg1485
(I99
I5
tp1608
sg1487
g1488
sba(imove
move
p1609
(dp1610
g1483
(I97
I8
tp1611
sg1485
(I97
I7
tp1612
sg1487
g1488
sba(imove
move
p1613
(dp1614
g1483
(I99
I5
tp1615
sg1485
(I98
I5
tp1616
sg1487
g1488
sba(imove
move
p1617
(dp1618
g1483
(I97
I7
tp1619
sg1485
(I97
I8
tp1620
sg1487
g1488
sba(imove
move
p1621
(dp1622
S'start'
p1623
(I97
I2
tp1624
sS'end'
p1625
(I97
I3
tp1626
sS'type'
p1627
S'normal'
p1628
sba(imove
move
p1629
(dp1630
g1623
(I97
I2
tp1631
sg1625
(I97
I4
tp1632
sg1627
g1628
sba(imove
move
p1633
(dp1634
g1623
(I97
I2
tp1635
sg1625
(I97
I3
tp1636
sg1627
g1628
sba(imove
move
p1637
(dp1638
g1623
(I97
I2
tp1639
sg1625
(I97
I4
tp1640
sg1627
g1628
sba(imove
move
p1641
(dp1642
g1623
(I97
I2
tp1643
sg1625
(I97
I3
tp1644
sg1627
g1628
sba(imove
move
p1645
(dp1646
g1623
(I97
I2
tp1647
sg1625
(I97
I4
tp1648
sg1627
g1628
sba(imove
move
p1649
(dp1650
g1623
(I97
I2
tp1651
sg1625
(I97
I3
tp1652
sg1627
g1628
sba(imove
move
p1653
(dp1654
g1623
(I97
I2
tp1655
sg1625
(I97
I4
tp1656
sg1627
g1628
sba(imove
move
p1657
(dp1658
g1623
(I97
I2
tp1659
sg1625
(I97
I3
tp1660
sg1627
g1628
sba(imove
move
p1661
(dp1662
g1623
(I97
I2
tp1663
sg1625
(I97
I4
tp1664
sg1627
g1628
sba(imove
move
p1665
(dp1666
g1623
(I97
I2
tp1667
sg1625
(I97
I3
tp1668
sg1627
g1628
sba(imove
move
p1669
(dp1670
g1623
(I97
I2
tp1671
sg1625
(I97
I4
tp1672
sg1627
g1628
sba(imove
move
p1673
(dp1674
g1623
(I97
I2
tp1675
sg1625
(I97
I3
tp1676
sg1627
g1628
sba(imove
move
p1677
(dp1678
g1623
(I97
I2
tp1679
sg1625
(I97
I4
tp1680
sg1627
g1628
sba(imove
move
p1681
(dp1682
g1623
(I97
I2
tp1683
sg1625
(I97
I3
tp1684
sg1627
g1628
sba(imove
move
p1685
(dp1686
g1623
(I97
I2
tp1687
sg1625
(I97
I4
tp1688
sg1627
g1628
sba(imove
move
p1689
(dp1690
g1623
(I97
I2
tp1691
sg1625
(I97
I3
tp1692
sg1627
g1628
sba(imove
move
p1693
(dp1694
g1623
(I97
I2
tp1695
sg1625
(I97
I4
tp1696
sg1627
g1628
sba(imove
move
p1697
(dp1698
g1623
(I97
I2
tp1699
sg1625
(I97
I3
tp1700
sg1627
g1628
sba(imove
move
p1701
(dp1702
g1623
(I97
I2
tp1703
sg1625
(I97
I4
tp1704
sg1627
g1628
sba(imove
move
p1705
(dp1706
g1623
(I97
I2
tp1707
sg1625
(I97
I3
tp1708
sg1627
g1628
sba(imove
move
p1709
(dp1710
g1623
(I97
I2
tp1711
sg1625
(I97
I4
tp1712
sg1627
g1628
sba(imove
move
p1713
(dp1714
g1623
(I97
I2
tp1715
sg1625
(I97
I3
tp1716
sg1627
g1628
sba(imove
move
p1717
(dp1718
g1623
(I97
I2
tp1719
sg1625
(I97
I4
tp1720
sg1627
g1628
sba(imove
move
p1721
(dp1722
g1623
(I97
I2
tp1723
sg1625
(I97
I3
tp1724
sg1627
g1628
sba(imove
move
p1725
(dp1726
g1623
(I97
I2
tp1727
sg1625
(I97
I4
tp1728
sg1627
g1628
sba(imove
move
p1729
(dp1730
g1623
(I97
I2
tp1731
sg1625
(I97
I3
tp1732
sg1627
g1628
sba(imove
move
p1733
(dp1734
g1623
(I97
I2
tp1735
sg1625
(I97
I4
tp1736
sg1627
g1628
sba(imove
move
p1737
(dp1738
g1623
(I97
I2
tp1739
sg1625
(I97
I3
tp1740
sg1627
g1628
sba(imove
move
p1741
(dp1742
g1623
(I97
I2
tp1743
sg1625
(I97
I4
tp1744
sg1627
g1628
sba(imove
move
p1745
(dp1746
g1623
(I97
I2
tp1747
sg1625
(I97
I3
tp1748
sg1627
g1628
sba(imove
move
p1749
(dp1750
g1623
(I97
I2
tp1751
sg1625
(I97
I4
tp1752
sg1627
g1628
sba(imove
move
p1753
(dp1754
g1623
(I97
I2
tp1755
sg1625
(I97
I3
tp1756
sg1627
g1628
sba(imove
move
p1757
(dp1758
g1623
(I97
I2
tp1759
sg1625
(I97
I4
tp1760
sg1627
g1628
sba(imove
move
p1761
(dp1762
g1623
(I97
I2
tp1763
sg1625
(I97
I3
tp1764
sg1627
g1628
sba(imove
move
p1765
(dp1766
g1623
(I97
I2
tp1767
sg1625
(I97
I4
tp1768
sg1627
g1628
sba(imove
move
p1769
(dp1770
g1623
(I97
I2
tp1771
sg1625
(I97
I3
tp1772
sg1627
g1628
sba(imove
move
p1773
(dp1774
g1623
(I97
I2
tp1775
sg1625
(I97
I4
tp1776
sg1627
g1628
sba(imove
move
p1777
(dp1778
g1623
(I97
I2
tp1779
sg1625
(I97
I3
tp1780
sg1627
g1628
sba(imove
move
p1781
(dp1782
g1623
(I97
I2
tp1783
sg1625
(I97
I4
tp1784
sg1627
g1628
sba(imove
move
p1785
(dp1786
g1623
(I97
I2
tp1787
sg1625
(I97
I3
tp1788
sg1627
g1628
sba(imove
move
p1789
(dp1790
g1623
(I97
I2
tp1791
sg1625
(I97
I4
tp1792
sg1627
g1628
sba(imove
move
p1793
(dp1794
g1623
(I97
I2
tp1795
sg1625
(I97
I3
tp1796
sg1627
g1628
sba(imove
move
p1797
(dp1798
g1623
(I97
I2
tp1799
sg1625
(I97
I4
tp1800
sg1627
g1628
sba(imove
move
p1801
(dp1802
g1623
(I97
I2
tp1803
sg1625
(I97
I3
tp1804
sg1627
g1628
sba(imove
move
p1805
(dp1806
g1623
(I97
I2
tp1807
sg1625
(I97
I4
tp1808
sg1627
g1628
sba(imove
move
p1809
(dp1810
g1623
(I97
I2
tp1811
sg1625
(I97
I3
tp1812
sg1627
g1628
sba(imove
move
p1813
(dp1814
g1623
(I97
I2
tp1815
sg1625
(I97
I4
tp1816
sg1627
g1628
sba(imove
move
p1817
(dp1818
g1623
(I97
I2
tp1819
sg1625
(I97
I3
tp1820
sg1627
g1628
sba(imove
move
p1821
(dp1822
g1623
(I97
I2
tp1823
sg1625
(I97
I4
tp1824
sg1627
g1628
sba(imove
move
p1825
(dp1826
g1623
(I97
I2
tp1827
sg1625
(I97
I3
tp1828
sg1627
g1628
sba(imove
move
p1829
(dp1830
g1623
(I97
I2
tp1831
sg1625
(I97
I4
tp1832
sg1627
g1628
sba(imove
move
p1833
(dp1834
g1623
(I97
I2
tp1835
sg1625
(I97
I3
tp1836
sg1627
g1628
sba(imove
move
p1837
(dp1838
g1623
(I97
I2
tp1839
sg1625
(I97
I4
tp1840
sg1627
g1628
sba(imove
move
p1841
(dp1842
g1623
(I97
I2
tp1843
sg1625
(I97
I3
tp1844
sg1627
g1628
sba(imove
move
p1845
(dp1846
g1623
(I97
I2
tp1847
sg1625
(I97
I4
tp1848
sg1627
g1628
sba(imove
move
p1849
(dp1850
g1623
(I97
I2
tp1851
sg1625
(I97
I3
tp1852
sg1627
g1628
sba(imove
move
p1853
(dp1854
g1623
(I97
I2
tp1855
sg1625
(I97
I4
tp1856
sg1627
g1628
sba(imove
move
p1857
(dp1858
g1623
(I97
I2
tp1859
sg1625
(I97
I3
tp1860
sg1627
g1628
sba(imove
move
p1861
(dp1862
g1623
(I97
I2
tp1863
sg1625
(I97
I4
tp1864
sg1627
g1628
sba(imove
move
p1865
(dp1866
g1623
(I97
I2
tp1867
sg1625
(I97
I3
tp1868
sg1627
g1628
sba(imove
move
p1869
(dp1870
g1623
(I97
I2
tp1871
sg1625
(I97
I4
tp1872
sg1627
g1628
sba(imove
move
p1873
(dp1874
g1623
(I97
I2
tp1875
sg1625
(I97
I3
tp1876
sg1627
g1628
sba(imove
move
p1877
(dp1878
g1623
(I97
I2
tp1879
sg1625
(I97
I4
tp1880
sg1627
g1628
sba(imove
move
p1881
(dp1882
g1623
(I97
I2
tp1883
sg1625
(I97
I3
tp1884
sg1627
g1628
sba(imove
move
p1885
(dp1886
g1623
(I97
I2
tp1887
sg1625
(I97
I4
tp1888
sg1627
g1628
sba(imove
move
p1889
(dp1890
g1623
(I97
I2
tp1891
sg1625
(I97
I3
tp1892
sg1627
g1628
sba(imove
move
p1893
(dp1894
g1623
(I97
I2
tp1895
sg1625
(I97
I4
tp1896
sg1627
g1628
sba(imove
move
p1897
(dp1898
g1623
(I97
I2
tp1899
sg1625
(I97
I3
tp1900
sg1627
g1628
sba(imove
move
p1901
(dp1902
g1623
(I97
I2
tp1903
sg1625
(I97
I4
tp1904
sg1627
g1628
sba(imove
move
p1905
(dp1906
g1623
(I97
I2
tp1907
sg1625
(I97
I3
tp1908
sg1627
g1628
sba(imove
move
p1909
(dp1910
g1623
(I97
I2
tp1911
sg1625
(I97
I4
tp1912
sg1627
g1628
sba(imove
move
p1913
(dp1914
g1623
(I97
I2
tp1915
sg1625
(I97
I3
tp1916
sg1627
g1628
sba(imove
move
p1917
(dp1918
g1623
(I97
I2
tp1919
sg1625
(I97
I4
tp1920
sg1627
g1628
sba(imove
move
p1921
(dp1922
g1623
(I97
I2
tp1923
sg1625
(I97
I3
tp1924
sg1627
g1628
sba(imove
move
p1925
(dp1926
g1623
(I97
I2
tp1927
sg1625
(I97
I4
tp1928
sg1627
g1628
sba(imove
move
p1929
(dp1930
g1623
(I97
I2
tp1931
sg1625
(I97
I3
tp1932
sg1627
g1628
sba(imove
move
p1933
(dp1934
g1623
(I97
I2
tp1935
sg1625
(I97
I4
tp1936
sg1627
g1628
sba(imove
move
p1937
(dp1938
g1623
(I97
I2
tp1939
sg1625
(I97
I3
tp1940
sg1627
g1628
sba(imove
move
p1941
(dp1942
g1623
(I97
I2
tp1943
sg1625
(I97
I4
tp1944
sg1627
g1628
sba(imove
move
p1945
(dp1946
g1623
(I97
I2
tp1947
sg1625
(I97
I3
tp1948
sg1627
g1628
sba(imove
move
p1949
(dp1950
g1623
(I97
I2
tp1951
sg1625
(I97
I4
tp1952
sg1627
g1628
sba(imove
move
p1953
(dp1954
g1623
(I97
I2
tp1955
sg1625
(I97
I3
tp1956
sg1627
g1628
sba(imove
move
p1957
(dp1958
g1623
(I97
I2
tp1959
sg1625
(I97
I4
tp1960
sg1627
g1628
sba(imove
move
p1961
(dp1962
g1623
(I97
I2
tp1963
sg1625
(I97
I3
tp1964
sg1627
g1628
sba(imove
move
p1965
(dp1966
g1623
(I97
I2
tp1967
sg1625
(I97
I4
tp1968
sg1627
g1628
sba(imove
move
p1969
(dp1970
g1623
(I97
I2
tp1971
sg1625
(I97
I3
tp1972
sg1627
g1628
sba(imove
move
p1973
(dp1974
g1623
(I97
I2
tp1975
sg1625
(I97
I4
tp1976
sg1627
g1628
sba(imove
move
p1977
(dp1978
g1623
(I97
I2
tp1979
sg1625
(I97
I3
tp1980
sg1627
g1628
sba(imove
move
p1981
(dp1982
g1623
(I97
I2
tp1983
sg1625
(I97
I4
tp1984
sg1627
g1628
sba(imove
move
p1985
(dp1986
g1623
(I97
I2
tp1987
sg1625
(I97
I3
tp1988
sg1627
g1628
sba(imove
move
p1989
(dp1990
g1623
(I97
I2
tp1991
sg1625
(I97
I4
tp1992
sg1627
g1628
sba(imove
move
p1993
(dp1994
g1623
(I97
I2
tp1995
sg1625
(I97
I3
tp1996
sg1627
g1628
sba(imove
move
p1997
(dp1998
g1623
(I97
I2
tp1999
sg1625
(I97
I4
tp2000
sg1627
g1628
sba(imove
move
p2001
(dp2002
g1623
(I97
I2
tp2003
sg1625
(I97
I3
tp2004
sg1627
g1628
sba(imove
move
p2005
(dp2006
g1623
(I97
I2
tp2007
sg1625
(I97
I4
tp2008
sg1627
g1628
sba(imove
move
p2009
(dp2010
g1623
(I97
I2
tp2011
sg1625
(I97
I3
tp2012
sg1627
g1628
sba(imove
move
p2013
(dp2014
g1623
(I97
I2
tp2015
sg1625
(I97
I4
tp2016
sg1627
g1628
sba(imove
move
p2017
(dp2018
g1623
(I97
I2
tp2019
sg1625
(I97
I3
tp2020
sg1627
g1628
sba(imove
move
p2021
(dp2022
g1623
(I97
I2
tp2023
sg1625
(I97
I4
tp2024
sg1627
g1628
sba(imove
move
p2025
(dp2026
g1623
(I97
I2
tp2027
sg1625
(I97
I3
tp2028
sg1627
g1628
sba(imove
move
p2029
(dp2030
g1623
(I97
I2
tp2031
sg1625
(I97
I4
tp2032
sg1627
g1628
sba(imove
move
p2033
(dp2034
g1623
(I97
I2
tp2035
sg1625
(I97
I3
tp2036
sg1627
g1628
sba(imove
move
p2037
(dp2038
g1623
(I97
I2
tp2039
sg1625
(I97
I4
tp2040
sg1627
g1628
sba(imove
move
p2041
(dp2042
g1623
(I97
I2
tp2043
sg1625
(I97
I3
tp2044
sg1627
g1628
sba(imove
move
p2045
(dp2046
g1623
(I97
I2
tp2047
sg1625
(I97
I4
tp2048
sg1627
g1628
sba(imove
move
p2049
(dp2050
g1623
(I97
I2
tp2051
sg1625
(I97
I3
tp2052
sg1627
g1628
sba(imove
move
p2053
(dp2054
g1623
(I97
I2
tp2055
sg1625
(I97
I4
tp2056
sg1627
g1628
sba(imove
move
p2057
(dp2058
g1623
(I97
I2
tp2059
sg1625
(I97
I3
tp2060
sg1627
g1628
sba(imove
move
p2061
(dp2062
g1623
(I97
I2
tp2063
sg1625
(I97
I4
tp2064
sg1627
g1628
sba(imove
move
p2065
(dp2066
g1623
(I97
I2
tp2067
sg1625
(I97
I3
tp2068
sg1627
g1628
sba(imove
move
p2069
(dp2070
g1623
(I97
I2
tp2071
sg1625
(I97
I4
tp2072
sg1627
g1628
sba(imove
move
p2073
(dp2074
g1623
(I97
I2
tp2075
sg1625
(I97
I3
tp2076
sg1627
g1628
sba(imove
move
p2077
(dp2078
g1623
(I97
I2
tp2079
sg1625
(I97
I4
tp2080
sg1627
g1628
sba(imove
move
p2081
(dp2082
g1623
(I97
I2
tp2083
sg1625
(I97
I3
tp2084
sg1627
g1628
sba(imove
move
p2085
(dp2086
g1623
(I97
I2
tp2087
sg1625
(I97
I4
tp2088
sg1627
g1628
sba(imove
move
p2089
(dp2090
g1623
(I97
I2
tp2091
sg1625
(I97
I3
tp2092
sg1627
g1628
sba(imove
move
p2093
(dp2094
g1623
(I97
I2
tp2095
sg1625
(I97
I4
tp2096
sg1627
g1628
sba(imove
move
p2097
(dp2098
g1623
(I97
I2
tp2099
sg1625
(I97
I3
tp2100
sg1627
g1628
sba(imove
move
p2101
(dp2102
g1623
(I97
I2
tp2103
sg1625
(I97
I4
tp2104
sg1627
g1628
sba(imove
move
p2105
(dp2106
g1623
(I97
I2
tp2107
sg1625
(I97
I3
tp2108
sg1627
g1628
sba(imove
move
p2109
(dp2110
g1623
(I97
I2
tp2111
sg1625
(I97
I4
tp2112
sg1627
g1628
sba(imove
move
p2113
(dp2114
g1623
(I97
I2
tp2115
sg1625
(I97
I3
tp2116
sg1627
g1628
sba(imove
move
p2117
(dp2118
g1623
(I97
I2
tp2119
sg1625
(I97
I4
tp2120
sg1627
g1628
sba(imove
move
p2121
(dp2122
g1623
(I97
I2
tp2123
sg1625
(I97
I3
tp2124
sg1627
g1628
sba(imove
move
p2125
(dp2126
g1623
(I97
I2
tp2127
sg1625
(I97
I4
tp2128
sg1627
g1628
sba(imove
move
p2129
(dp2130
g1623
(I97
I2
tp2131
sg1625
(I97
I3
tp2132
sg1627
g1628
sba(imove
move
p2133
(dp2134
g1623
(I97
I2
tp2135
sg1625
(I97
I4
tp2136
sg1627
g1628
sba(imove
move
p2137
(dp2138
g1623
(I97
I2
tp2139
sg1625
(I97
I3
tp2140
sg1627
g1628
sba(imove
move
p2141
(dp2142
g1623
(I97
I2
tp2143
sg1625
(I97
I4
tp2144
sg1627
g1628
sba(imove
move
p2145
(dp2146
g1623
(I97
I2
tp2147
sg1625
(I97
I3
tp2148
sg1627
g1628
sba(imove
move
p2149
(dp2150
g1623
(I97
I2
tp2151
sg1625
(I97
I4
tp2152
sg1627
g1628
sba(imove
move
p2153
(dp2154
g1623
(I97
I2
tp2155
sg1625
(I97
I3
tp2156
sg1627
g1628
sba(imove
move
p2157
(dp2158
g1623
(I97
I2
tp2159
sg1625
(I97
I4
tp2160
sg1627
g1628
sba(imove
move
p2161
(dp2162
g1623
(I97
I2
tp2163
sg1625
(I97
I3
tp2164
sg1627
g1628
sba(imove
move
p2165
(dp2166
g1623
(I97
I2
tp2167
sg1625
(I97
I4
tp2168
sg1627
g1628
sba(imove
move
p2169
(dp2170
g1623
(I101
I2
tp2171
sg1625
(I101
I3
tp2172
sg1627
g1628
sba(imove
move
p2173
(dp2174
g1623
(I101
I2
tp2175
sg1625
(I101
I4
tp2176
sg1627
g1628
sba(imove
move
p2177
(dp2178
g1623
(I97
I2
tp2179
sg1625
(I97
I3
tp2180
sg1627
g1628
sba(imove
move
p2181
(dp2182
g1623
(I97
I2
tp2183
sg1625
(I97
I4
tp2184
sg1627
g1628
sba(imove
move
p2185
(dp2186
g1623
(I101
I2
tp2187
sg1625
(I101
I3
tp2188
sg1627
g1628
sba(imove
move
p2189
(dp2190
g1623
(I101
I2
tp2191
sg1625
(I101
I4
tp2192
sg1627
g1628
sba(imove
move
p2193
(dp2194
g1623
(I97
I2
tp2195
sg1625
(I97
I3
tp2196
sg1627
g1628
sba(imove
move
p2197
(dp2198
g1623
(I97
I2
tp2199
sg1625
(I97
I4
tp2200
sg1627
g1628
sba(imove
move
p2201
(dp2202
g1623
(I101
I2
tp2203
sg1625
(I101
I3
tp2204
sg1627
g1628
sba(imove
move
p2205
(dp2206
g1623
(I101
I2
tp2207
sg1625
(I101
I4
tp2208
sg1627
g1628
sba(imove
move
p2209
(dp2210
g1623
(I97
I2
tp2211
sg1625
(I97
I3
tp2212
sg1627
g1628
sba(imove
move
p2213
(dp2214
g1623
(I97
I2
tp2215
sg1625
(I97
I4
tp2216
sg1627
g1628
sba(imove
move
p2217
(dp2218
g1623
(I101
I2
tp2219
sg1625
(I101
I3
tp2220
sg1627
g1628
sba(imove
move
p2221
(dp2222
g1623
(I101
I2
tp2223
sg1625
(I101
I4
tp2224
sg1627
g1628
sba(imove
move
p2225
(dp2226
g1623
(I97
I2
tp2227
sg1625
(I97
I3
tp2228
sg1627
g1628
sba(imove
move
p2229
(dp2230
g1623
(I97
I2
tp2231
sg1625
(I97
I4
tp2232
sg1627
g1628
sba(imove
move
p2233
(dp2234
g1623
(I101
I2
tp2235
sg1625
(I101
I3
tp2236
sg1627
g1628
sba(imove
move
p2237
(dp2238
g1623
(I101
I2
tp2239
sg1625
(I101
I4
tp2240
sg1627
g1628
sba(imove
move
p2241
(dp2242
g1623
(I97
I2
tp2243
sg1625
(I97
I3
tp2244
sg1627
g1628
sba(imove
move
p2245
(dp2246
g1623
(I97
I2
tp2247
sg1625
(I97
I4
tp2248
sg1627
g1628
sba(imove
move
p2249
(dp2250
g1623
(I101
I2
tp2251
sg1625
(I101
I3
tp2252
sg1627
g1628
sba(imove
move
p2253
(dp2254
g1623
(I101
I2
tp2255
sg1625
(I101
I4
tp2256
sg1627
g1628
sba(imove
move
p2257
(dp2258
g1623
(I97
I2
tp2259
sg1625
(I97
I3
tp2260
sg1627
g1628
sba(imove
move
p2261
(dp2262
g1623
(I97
I2
tp2263
sg1625
(I97
I4
tp2264
sg1627
g1628
sba(imove
move
p2265
(dp2266
g1623
(I101
I2
tp2267
sg1625
(I101
I3
tp2268
sg1627
g1628
sba(imove
move
p2269
(dp2270
g1623
(I101
I2
tp2271
sg1625
(I101
I4
tp2272
sg1627
g1628
sba(imove
move
p2273
(dp2274
g1623
(I97
I2
tp2275
sg1625
(I97
I3
tp2276
sg1627
g1628
sba(imove
move
p2277
(dp2278
g1623
(I97
I2
tp2279
sg1625
(I97
I4
tp2280
sg1627
g1628
sba(imove
move
p2281
(dp2282
g1623
(I101
I2
tp2283
sg1625
(I101
I3
tp2284
sg1627
g1628
sba(imove
move
p2285
(dp2286
g1623
(I101
I2
tp2287
sg1625
(I101
I4
tp2288
sg1627
g1628
sba(imove
move
p2289
(dp2290
g1623
(I97
I2
tp2291
sg1625
(I97
I3
tp2292
sg1627
g1628
sba(imove
move
p2293
(dp2294
g1623
(I97
I2
tp2295
sg1625
(I97
I4
tp2296
sg1627
g1628
sba(imove
move
p2297
(dp2298
g1623
(I101
I2
tp2299
sg1625
(I101
I3
tp2300
sg1627
g1628
sba(imove
move
p2301
(dp2302
g1623
(I101
I2
tp2303
sg1625
(I101
I4
tp2304
sg1627
g1628
sba(imove
move
p2305
(dp2306
g1623
(I97
I2
tp2307
sg1625
(I97
I3
tp2308
sg1627
g1628
sba(imove
move
p2309
(dp2310
g1623
(I97
I2
tp2311
sg1625
(I97
I4
tp2312
sg1627
g1628
sba(imove
move
p2313
(dp2314
g1623
(I97
I2
tp2315
sg1625
(I97
I3
tp2316
sg1627
g1628
sba(imove
move
p2317
(dp2318
g1623
(I97
I2
tp2319
sg1625
(I97
I4
tp2320
sg1627
g1628
sba(imove
move
p2321
(dp2322
g1623
(I97
I2
tp2323
sg1625
(I97
I3
tp2324
sg1627
g1628
sba(imove
move
p2325
(dp2326
g1623
(I97
I2
tp2327
sg1625
(I97
I4
tp2328
sg1627
g1628
sba(imove
move
p2329
(dp2330
g1623
(I97
I2
tp2331
sg1625
(I97
I3
tp2332
sg1627
g1628
sba(imove
move
p2333
(dp2334
g1623
(I97
I2
tp2335
sg1625
(I97
I4
tp2336
sg1627
g1628
sba(imove
move
p2337
(dp2338
g1623
(I101
I2
tp2339
sg1625
(I101
I4
tp2340
sg1627
g1628
sba(imove
move
p2341
(dp2342
g1623
(I102
I7
tp2343
sg1625
(I102
I6
tp2344
sg1627
g1628
sba(imove
move
p2345
(dp2346
g1623
(I102
I7
tp2347
sg1625
(I102
I5
tp2348
sg1627
g1628
sba(imove
move
p2349
(dp2350
g1623
(I102
I7
tp2351
sg1625
(I102
I6
tp2352
sg1627
g1628
sba(imove
move
p2353
(dp2354
g1623
(I102
I7
tp2355
sg1625
(I102
I5
tp2356
sg1627
g1628
sba(imove
move
p2357
(dp2358
g1623
(I102
I7
tp2359
sg1625
(I102
I6
tp2360
sg1627
g1628
sba(imove
move
p2361
(dp2362
g1623
(I102
I7
tp2363
sg1625
(I102
I5
tp2364
sg1627
g1628
sba(imove
move
p2365
(dp2366
g1623
(I102
I7
tp2367
sg1625
(I102
I6
tp2368
sg1627
g1628
sba(imove
move
p2369
(dp2370
g1623
(I102
I7
tp2371
sg1625
(I102
I5
tp2372
sg1627
g1628
sba(imove
move
p2373
(dp2374
g1623
(I102
I7
tp2375
sg1625
(I102
I6
tp2376
sg1627
g1628
sba(imove
move
p2377
(dp2378
g1623
(I102
I7
tp2379
sg1625
(I102
I5
tp2380
sg1627
g1628
sba(imove
move
p2381
(dp2382
g1623
(I102
I7
tp2383
sg1625
(I102
I6
tp2384
sg1627
g1628
sba(imove
move
p2385
(dp2386
g1623
(I102
I7
tp2387
sg1625
(I102
I5
tp2388
sg1627
g1628
sba(imove
move
p2389
(dp2390
g1623
(I102
I7
tp2391
sg1625
(I102
I6
tp2392
sg1627
g1628
sba(imove
move
p2393
(dp2394
g1623
(I102
I7
tp2395
sg1625
(I102
I5
tp2396
sg1627
g1628
sba(imove
move
p2397
(dp2398
g1623
(I102
I7
tp2399
sg1625
(I102
I6
tp2400
sg1627
g1628
sba(imove
move
p2401
(dp2402
g1623
(I102
I7
tp2403
sg1625
(I102
I5
tp2404
sg1627
g1628
sba(imove
move
p2405
(dp2406
g1623
(I102
I7
tp2407
sg1625
(I102
I6
tp2408
sg1627
g1628
sba(imove
move
p2409
(dp2410
g1623
(I102
I7
tp2411
sg1625
(I102
I5
tp2412
sg1627
g1628
sba(imove
move
p2413
(dp2414
g1623
(I102
I7
tp2415
sg1625
(I102
I6
tp2416
sg1627
g1628
sba(imove
move
p2417
(dp2418
g1623
(I102
I7
tp2419
sg1625
(I102
I5
tp2420
sg1627
g1628
sba(imove
move
p2421
(dp2422
g1623
(I102
I7
tp2423
sg1625
(I102
I6
tp2424
sg1627
g1628
sba(imove
move
p2425
(dp2426
g1623
(I102
I7
tp2427
sg1625
(I102
I5
tp2428
sg1627
g1628
sba(imove
move
p2429
(dp2430
g1623
(I102
I7
tp2431
sg1625
(I102
I6
tp2432
sg1627
g1628
sba(imove
move
p2433
(dp2434
g1623
(I102
I7
tp2435
sg1625
(I102
I5
tp2436
sg1627
g1628
sba(imove
move
p2437
(dp2438
g1623
(I102
I7
tp2439
sg1625
(I102
I6
tp2440
sg1627
g1628
sba(imove
move
p2441
(dp2442
g1623
(I102
I7
tp2443
sg1625
(I102
I5
tp2444
sg1627
g1628
sba(imove
move
p2445
(dp2446
g1623
(I102
I7
tp2447
sg1625
(I102
I6
tp2448
sg1627
g1628
sba(imove
move
p2449
(dp2450
g1623
(I102
I7
tp2451
sg1625
(I102
I5
tp2452
sg1627
g1628
sba(imove
move
p2453
(dp2454
g1623
(I102
I7
tp2455
sg1625
(I102
I6
tp2456
sg1627
g1628
sba(imove
move
p2457
(dp2458
g1623
(I102
I7
tp2459
sg1625
(I102
I5
tp2460
sg1627
g1628
sba(imove
move
p2461
(dp2462
g1623
(I102
I7
tp2463
sg1625
(I102
I6
tp2464
sg1627
g1628
sba(imove
move
p2465
(dp2466
g1623
(I102
I7
tp2467
sg1625
(I102
I5
tp2468
sg1627
g1628
sba(imove
move
p2469
(dp2470
g1623
(I102
I7
tp2471
sg1625
(I102
I6
tp2472
sg1627
g1628
sba(imove
move
p2473
(dp2474
g1623
(I102
I7
tp2475
sg1625
(I102
I5
tp2476
sg1627
g1628
sba(imove
move
p2477
(dp2478
g1623
(I102
I7
tp2479
sg1625
(I102
I6
tp2480
sg1627
g1628
sba(imove
move
p2481
(dp2482
g1623
(I102
I7
tp2483
sg1625
(I102
I5
tp2484
sg1627
g1628
sba(imove
move
p2485
(dp2486
g1623
(I102
I7
tp2487
sg1625
(I102
I6
tp2488
sg1627
g1628
sba(imove
move
p2489
(dp2490
g1623
(I102
I7
tp2491
sg1625
(I102
I5
tp2492
sg1627
g1628
sba(imove
move
p2493
(dp2494
g1623
(I102
I7
tp2495
sg1625
(I102
I6
tp2496
sg1627
g1628
sba(imove
move
p2497
(dp2498
g1623
(I102
I7
tp2499
sg1625
(I102
I5
tp2500
sg1627
g1628
sba(imove
move
p2501
(dp2502
g1623
(I102
I7
tp2503
sg1625
(I102
I6
tp2504
sg1627
g1628
sba(imove
move
p2505
(dp2506
g1623
(I102
I7
tp2507
sg1625
(I102
I5
tp2508
sg1627
g1628
sba(imove
move
p2509
(dp2510
g1623
(I102
I7
tp2511
sg1625
(I102
I6
tp2512
sg1627
g1628
sba(imove
move
p2513
(dp2514
g1623
(I102
I7
tp2515
sg1625
(I102
I5
tp2516
sg1627
g1628
sba(imove
move
p2517
(dp2518
g1623
(I102
I7
tp2519
sg1625
(I102
I6
tp2520
sg1627
g1628
sba(imove
move
p2521
(dp2522
g1623
(I102
I7
tp2523
sg1625
(I102
I5
tp2524
sg1627
g1628
sba(imove
move
p2525
(dp2526
g1623
(I102
I7
tp2527
sg1625
(I102
I6
tp2528
sg1627
g1628
sba(imove
move
p2529
(dp2530
g1623
(I102
I7
tp2531
sg1625
(I102
I5
tp2532
sg1627
g1628
sba(imove
move
p2533
(dp2534
g1623
(I102
I7
tp2535
sg1625
(I102
I6
tp2536
sg1627
g1628
sba(imove
move
p2537
(dp2538
g1623
(I102
I7
tp2539
sg1625
(I102
I5
tp2540
sg1627
g1628
sba(imove
move
p2541
(dp2542
g1623
(I102
I7
tp2543
sg1625
(I102
I6
tp2544
sg1627
g1628
sba(imove
move
p2545
(dp2546
g1623
(I102
I7
tp2547
sg1625
(I102
I5
tp2548
sg1627
g1628
sba(imove
move
p2549
(dp2550
g1623
(I102
I7
tp2551
sg1625
(I102
I6
tp2552
sg1627
g1628
sba(imove
move
p2553
(dp2554
g1623
(I102
I7
tp2555
sg1625
(I102
I5
tp2556
sg1627
g1628
sba(imove
move
p2557
(dp2558
g1623
(I102
I7
tp2559
sg1625
(I102
I6
tp2560
sg1627
g1628
sba(imove
move
p2561
(dp2562
g1623
(I102
I7
tp2563
sg1625
(I102
I5
tp2564
sg1627
g1628
sba(imove
move
p2565
(dp2566
g1623
(I102
I7
tp2567
sg1625
(I102
I6
tp2568
sg1627
g1628
sba(imove
move
p2569
(dp2570
g1623
(I102
I7
tp2571
sg1625
(I102
I5
tp2572
sg1627
g1628
sba(imove
move
p2573
(dp2574
g1623
(I102
I7
tp2575
sg1625
(I102
I6
tp2576
sg1627
g1628
sba(imove
move
p2577
(dp2578
g1623
(I102
I7
tp2579
sg1625
(I102
I5
tp2580
sg1627
g1628
sba(imove
move
p2581
(dp2582
g1623
(I102
I7
tp2583
sg1625
(I102
I6
tp2584
sg1627
g1628
sba(imove
move
p2585
(dp2586
g1623
(I102
I7
tp2587
sg1625
(I102
I5
tp2588
sg1627
g1628
sba(imove
move
p2589
(dp2590
g1623
(I101
I7
tp2591
sg1625
(I101
I6
tp2592
sg1627
g1628
sba(imove
move
p2593
(dp2594
g1623
(I101
I7
tp2595
sg1625
(I101
I5
tp2596
sg1627
g1628
sba(imove
move
p2597
(dp2598
g1623
(I102
I7
tp2599
sg1625
(I102
I6
tp2600
sg1627
g1628
sba(imove
move
p2601
(dp2602
g1623
(I102
I7
tp2603
sg1625
(I102
I5
tp2604
sg1627
g1628
sba(imove
move
p2605
(dp2606
g1623
(I101
I7
tp2607
sg1625
(I101
I6
tp2608
sg1627
g1628
sba(imove
move
p2609
(dp2610
g1623
(I101
I7
tp2611
sg1625
(I101
I5
tp2612
sg1627
g1628
sba(imove
move
p2613
(dp2614
g1623
(I102
I7
tp2615
sg1625
(I102
I6
tp2616
sg1627
g1628
sba(imove
move
p2617
(dp2618
g1623
(I102
I7
tp2619
sg1625
(I102
I5
tp2620
sg1627
g1628
sba(imove
move
p2621
(dp2622
g1623
(I101
I7
tp2623
sg1625
(I101
I6
tp2624
sg1627
g1628
sba(imove
move
p2625
(dp2626
g1623
(I101
I7
tp2627
sg1625
(I101
I5
tp2628
sg1627
g1628
sba(imove
move
p2629
(dp2630
g1623
(I102
I7
tp2631
sg1625
(I102
I6
tp2632
sg1627
g1628
sba(imove
move
p2633
(dp2634
g1623
(I102
I7
tp2635
sg1625
(I102
I5
tp2636
sg1627
g1628
sba(imove
move
p2637
(dp2638
g1623
(I101
I7
tp2639
sg1625
(I101
I6
tp2640
sg1627
g1628
sba(imove
move
p2641
(dp2642
g1623
(I101
I7
tp2643
sg1625
(I101
I5
tp2644
sg1627
g1628
sba(imove
move
p2645
(dp2646
g1623
(I102
I7
tp2647
sg1625
(I102
I6
tp2648
sg1627
g1628
sba(imove
move
p2649
(dp2650
g1623
(I102
I7
tp2651
sg1625
(I102
I5
tp2652
sg1627
g1628
sba(imove
move
p2653
(dp2654
g1623
(I101
I7
tp2655
sg1625
(I101
I6
tp2656
sg1627
g1628
sba(imove
move
p2657
(dp2658
g1623
(I101
I7
tp2659
sg1625
(I101
I5
tp2660
sg1627
g1628
sba(imove
move
p2661
(dp2662
g1623
(I102
I7
tp2663
sg1625
(I102
I6
tp2664
sg1627
g1628
sba(imove
move
p2665
(dp2666
g1623
(I102
I7
tp2667
sg1625
(I102
I5
tp2668
sg1627
g1628
sba(imove
move
p2669
(dp2670
g1623
(I101
I7
tp2671
sg1625
(I101
I6
tp2672
sg1627
g1628
sba(imove
move
p2673
(dp2674
g1623
(I101
I7
tp2675
sg1625
(I101
I5
tp2676
sg1627
g1628
sba(imove
move
p2677
(dp2678
g1623
(I102
I7
tp2679
sg1625
(I102
I6
tp2680
sg1627
g1628
sba(imove
move
p2681
(dp2682
g1623
(I102
I7
tp2683
sg1625
(I102
I5
tp2684
sg1627
g1628
sba(imove
move
p2685
(dp2686
g1623
(I101
I7
tp2687
sg1625
(I101
I6
tp2688
sg1627
g1628
sba(imove
move
p2689
(dp2690
g1623
(I101
I7
tp2691
sg1625
(I101
I5
tp2692
sg1627
g1628
sba(imove
move
p2693
(dp2694
g1623
(I102
I7
tp2695
sg1625
(I102
I6
tp2696
sg1627
g1628
sba(imove
move
p2697
(dp2698
g1623
(I102
I7
tp2699
sg1625
(I102
I5
tp2700
sg1627
g1628
sba(imove
move
p2701
(dp2702
g1623
(I101
I7
tp2703
sg1625
(I101
I6
tp2704
sg1627
g1628
sba(imove
move
p2705
(dp2706
g1623
(I101
I7
tp2707
sg1625
(I101
I5
tp2708
sg1627
g1628
sba(imove
move
p2709
(dp2710
g1623
(I102
I7
tp2711
sg1625
(I102
I6
tp2712
sg1627
g1628
sba(imove
move
p2713
(dp2714
g1623
(I102
I7
tp2715
sg1625
(I102
I5
tp2716
sg1627
g1628
sba(imove
move
p2717
(dp2718
g1623
(I101
I7
tp2719
sg1625
(I101
I6
tp2720
sg1627
g1628
sba(imove
move
p2721
(dp2722
g1623
(I101
I7
tp2723
sg1625
(I101
I5
tp2724
sg1627
g1628
sba(imove
move
p2725
(dp2726
g1623
(I102
I7
tp2727
sg1625
(I102
I6
tp2728
sg1627
g1628
sba(imove
move
p2729
(dp2730
g1623
(I102
I7
tp2731
sg1625
(I102
I5
tp2732
sg1627
g1628
sba(imove
move
p2733
(dp2734
g1623
(I101
I7
tp2735
sg1625
(I101
I6
tp2736
sg1627
g1628
sba(imove
move
p2737
(dp2738
g1623
(I101
I7
tp2739
sg1625
(I101
I5
tp2740
sg1627
g1628
sba(imove
move
p2741
(dp2742
g1623
(I102
I7
tp2743
sg1625
(I102
I6
tp2744
sg1627
g1628
sba(imove
move
p2745
(dp2746
g1623
(I102
I7
tp2747
sg1625
(I102
I5
tp2748
sg1627
g1628
sba(imove
move
p2749
(dp2750
g1623
(I101
I7
tp2751
sg1625
(I101
I6
tp2752
sg1627
g1628
sba(imove
move
p2753
(dp2754
g1623
(I101
I7
tp2755
sg1625
(I101
I5
tp2756
sg1627
g1628
sba(imove
move
p2757
(dp2758
g1623
(I102
I7
tp2759
sg1625
(I102
I6
tp2760
sg1627
g1628
sba(imove
move
p2761
(dp2762
g1623
(I102
I7
tp2763
sg1625
(I102
I5
tp2764
sg1627
g1628
sba(imove
move
p2765
(dp2766
g1623
(I102
I7
tp2767
sg1625
(I102
I6
tp2768
sg1627
g1628
sba(imove
move
p2769
(dp2770
g1623
(I102
I7
tp2771
sg1625
(I102
I5
tp2772
sg1627
g1628
sba(imove
move
p2773
(dp2774
g1623
(I102
I7
tp2775
sg1625
(I102
I6
tp2776
sg1627
g1628
sba(imove
move
p2777
(dp2778
g1623
(I102
I7
tp2779
sg1625
(I102
I5
tp2780
sg1627
g1628
sba(imove
move
p2781
(dp2782
g1623
(I101
I7
tp2783
sg1625
(I101
I5
tp2784
sg1627
g1628
sba(imove
move
p2785
(dp2786
g1623
(I103
I1
tp2787
sg1625
(I104
I3
tp2788
sg1627
g1628
sba(imove
move
p2789
(dp2790
g1623
(I103
I1
tp2791
sg1625
(I102
I3
tp2792
sg1627
g1628
sba(imove
move
p2793
(dp2794
g1623
(I103
I1
tp2795
sg1625
(I101
I2
tp2796
sg1627
g1628
sba(imove
move
p2797
(dp2798
g1623
(I103
I1
tp2799
sg1625
(I104
I3
tp2800
sg1627
g1628
sba(imove
move
p2801
(dp2802
g1623
(I103
I1
tp2803
sg1625
(I102
I3
tp2804
sg1627
g1628
sba(imove
move
p2805
(dp2806
g1623
(I103
I1
tp2807
sg1625
(I101
I2
tp2808
sg1627
g1628
sba(imove
move
p2809
(dp2810
g1623
(I103
I1
tp2811
sg1625
(I104
I3
tp2812
sg1627
g1628
sba(imove
move
p2813
(dp2814
g1623
(I103
I1
tp2815
sg1625
(I102
I3
tp2816
sg1627
g1628
sba(imove
move
p2817
(dp2818
g1623
(I103
I1
tp2819
sg1625
(I101
I2
tp2820
sg1627
g1628
sba(imove
move
p2821
(dp2822
g1623
(I103
I1
tp2823
sg1625
(I104
I3
tp2824
sg1627
g1628
sba(imove
move
p2825
(dp2826
g1623
(I103
I1
tp2827
sg1625
(I102
I3
tp2828
sg1627
g1628
sba(imove
move
p2829
(dp2830
g1623
(I103
I1
tp2831
sg1625
(I101
I2
tp2832
sg1627
g1628
sba(imove
move
p2833
(dp2834
g1623
(I103
I1
tp2835
sg1625
(I104
I3
tp2836
sg1627
g1628
sba(imove
move
p2837
(dp2838
g1623
(I103
I1
tp2839
sg1625
(I102
I3
tp2840
sg1627
g1628
sba(imove
move
p2841
(dp2842
g1623
(I103
I1
tp2843
sg1625
(I101
I2
tp2844
sg1627
g1628
sba(imove
move
p2845
(dp2846
g1623
(I103
I1
tp2847
sg1625
(I104
I3
tp2848
sg1627
g1628
sba(imove
move
p2849
(dp2850
g1623
(I103
I1
tp2851
sg1625
(I102
I3
tp2852
sg1627
g1628
sba(imove
move
p2853
(dp2854
g1623
(I103
I1
tp2855
sg1625
(I101
I2
tp2856
sg1627
g1628
sba(imove
move
p2857
(dp2858
g1623
(I103
I1
tp2859
sg1625
(I104
I3
tp2860
sg1627
g1628
sba(imove
move
p2861
(dp2862
g1623
(I103
I1
tp2863
sg1625
(I102
I3
tp2864
sg1627
g1628
sba(imove
move
p2865
(dp2866
g1623
(I103
I1
tp2867
sg1625
(I101
I2
tp2868
sg1627
g1628
sba(imove
move
p2869
(dp2870
g1623
(I103
I1
tp2871
sg1625
(I104
I3
tp2872
sg1627
g1628
sba(imove
move
p2873
(dp2874
g1623
(I103
I1
tp2875
sg1625
(I102
I3
tp2876
sg1627
g1628
sba(imove
move
p2877
(dp2878
g1623
(I103
I1
tp2879
sg1625
(I101
I2
tp2880
sg1627
g1628
sba(imove
move
p2881
(dp2882
g1623
(I103
I1
tp2883
sg1625
(I104
I3
tp2884
sg1627
g1628
sba(imove
move
p2885
(dp2886
g1623
(I103
I1
tp2887
sg1625
(I102
I3
tp2888
sg1627
g1628
sba(imove
move
p2889
(dp2890
g1623
(I103
I1
tp2891
sg1625
(I101
I2
tp2892
sg1627
g1628
sba(imove
move
p2893
(dp2894
g1623
(I103
I1
tp2895
sg1625
(I104
I3
tp2896
sg1627
g1628
sba(imove
move
p2897
(dp2898
g1623
(I103
I1
tp2899
sg1625
(I102
I3
tp2900
sg1627
g1628
sba(imove
move
p2901
(dp2902
g1623
(I103
I1
tp2903
sg1625
(I101
I2
tp2904
sg1627
g1628
sba(imove
move
p2905
(dp2906
g1623
(I103
I1
tp2907
sg1625
(I104
I3
tp2908
sg1627
g1628
sba(imove
move
p2909
(dp2910
g1623
(I103
I1
tp2911
sg1625
(I102
I3
tp2912
sg1627
g1628
sba(imove
move
p2913
(dp2914
g1623
(I103
I1
tp2915
sg1625
(I101
I2
tp2916
sg1627
g1628
sba(imove
move
p2917
(dp2918
g1623
(I103
I1
tp2919
sg1625
(I104
I3
tp2920
sg1627
g1628
sba(imove
move
p2921
(dp2922
g1623
(I103
I1
tp2923
sg1625
(I102
I3
tp2924
sg1627
g1628
sba(imove
move
p2925
(dp2926
g1623
(I103
I1
tp2927
sg1625
(I101
I2
tp2928
sg1627
g1628
sba(imove
move
p2929
(dp2930
g1623
(I103
I1
tp2931
sg1625
(I104
I3
tp2932
sg1627
g1628
sba(imove
move
p2933
(dp2934
g1623
(I103
I1
tp2935
sg1625
(I102
I3
tp2936
sg1627
g1628
sba(imove
move
p2937
(dp2938
g1623
(I103
I1
tp2939
sg1625
(I101
I2
tp2940
sg1627
g1628
sba(imove
move
p2941
(dp2942
g1623
(I103
I1
tp2943
sg1625
(I104
I3
tp2944
sg1627
g1628
sba(imove
move
p2945
(dp2946
g1623
(I103
I1
tp2947
sg1625
(I102
I3
tp2948
sg1627
g1628
sba(imove
move
p2949
(dp2950
g1623
(I103
I1
tp2951
sg1625
(I101
I2
tp2952
sg1627
g1628
sba(imove
move
p2953
(dp2954
g1623
(I103
I1
tp2955
sg1625
(I102
I3
tp2956
sg1627
g1628
sba(imove
move
p2957
(dp2958
g1623
(I103
I1
tp2959
sg1625
(I104
I3
tp2960
sg1627
g1628
sba(imove
move
p2961
(dp2962
g1623
(I103
I1
tp2963
sg1625
(I102
I3
tp2964
sg1627
g1628
sba(imove
move
p2965
(dp2966
g1623
(I103
I1
tp2967
sg1625
(I101
I2
tp2968
sg1627
g1628
sba(imove
move
p2969
(dp2970
g1623
(I103
I1
tp2971
sg1625
(I104
I3
tp2972
sg1627
g1628
sba(imove
move
p2973
(dp2974
g1623
(I103
I1
tp2975
sg1625
(I102
I3
tp2976
sg1627
g1628
sba(imove
move
p2977
(dp2978
g1623
(I103
I1
tp2979
sg1625
(I101
I2
tp2980
sg1627
g1628
sba(imove
move
p2981
(dp2982
g1623
(I103
I1
tp2983
sg1625
(I104
I3
tp2984
sg1627
g1628
sba(imove
move
p2985
(dp2986
g1623
(I103
I1
tp2987
sg1625
(I102
I3
tp2988
sg1627
g1628
sba(imove
move
p2989
(dp2990
g1623
(I103
I1
tp2991
sg1625
(I101
I2
tp2992
sg1627
g1628
sba(imove
move
p2993
(dp2994
g1623
(I103
I1
tp2995
sg1625
(I104
I3
tp2996
sg1627
g1628
sba(imove
move
p2997
(dp2998
g1623
(I103
I1
tp2999
sg1625
(I102
I3
tp3000
sg1627
g1628
sba(imove
move
p3001
(dp3002
g1623
(I103
I1
tp3003
sg1625
(I101
I2
tp3004
sg1627
g1628
sba(imove
move
p3005
(dp3006
g1623
(I103
I1
tp3007
sg1625
(I104
I3
tp3008
sg1627
g1628
sba(imove
move
p3009
(dp3010
g1623
(I103
I1
tp3011
sg1625
(I102
I3
tp3012
sg1627
g1628
sba(imove
move
p3013
(dp3014
g1623
(I103
I1
tp3015
sg1625
(I101
I2
tp3016
sg1627
g1628
sba(imove
move
p3017
(dp3018
g1623
(I103
I1
tp3019
sg1625
(I104
I3
tp3020
sg1627
g1628
sba(imove
move
p3021
(dp3022
g1623
(I103
I1
tp3023
sg1625
(I102
I3
tp3024
sg1627
g1628
sba(imove
move
p3025
(dp3026
g1623
(I103
I1
tp3027
sg1625
(I101
I2
tp3028
sg1627
g1628
sba(imove
move
p3029
(dp3030
g1623
(I103
I1
tp3031
sg1625
(I104
I3
tp3032
sg1627
g1628
sba(imove
move
p3033
(dp3034
g1623
(I103
I1
tp3035
sg1625
(I102
I3
tp3036
sg1627
g1628
sba(imove
move
p3037
(dp3038
g1623
(I103
I1
tp3039
sg1625
(I101
I2
tp3040
sg1627
g1628
sba(imove
move
p3041
(dp3042
g1623
(I103
I1
tp3043
sg1625
(I104
I3
tp3044
sg1627
g1628
sba(imove
move
p3045
(dp3046
g1623
(I103
I1
tp3047
sg1625
(I102
I3
tp3048
sg1627
g1628
sba(imove
move
p3049
(dp3050
g1623
(I103
I1
tp3051
sg1625
(I101
I2
tp3052
sg1627
g1628
sba(imove
move
p3053
(dp3054
g1623
(I103
I1
tp3055
sg1625
(I104
I3
tp3056
sg1627
g1628
sba(imove
move
p3057
(dp3058
g1623
(I103
I1
tp3059
sg1625
(I102
I3
tp3060
sg1627
g1628
sba(imove
move
p3061
(dp3062
g1623
(I103
I1
tp3063
sg1625
(I101
I2
tp3064
sg1627
g1628
sba(imove
move
p3065
(dp3066
g1623
(I103
I1
tp3067
sg1625
(I104
I3
tp3068
sg1627
g1628
sba(imove
move
p3069
(dp3070
g1623
(I103
I1
tp3071
sg1625
(I102
I3
tp3072
sg1627
g1628
sba(imove
move
p3073
(dp3074
g1623
(I103
I1
tp3075
sg1625
(I101
I2
tp3076
sg1627
g1628
sba(imove
move
p3077
(dp3078
g1623
(I103
I1
tp3079
sg1625
(I104
I3
tp3080
sg1627
g1628
sba(imove
move
p3081
(dp3082
g1623
(I103
I1
tp3083
sg1625
(I102
I3
tp3084
sg1627
g1628
sba(imove
move
p3085
(dp3086
g1623
(I103
I1
tp3087
sg1625
(I101
I2
tp3088
sg1627
g1628
sba(imove
move
p3089
(dp3090
g1623
(I103
I1
tp3091
sg1625
(I104
I3
tp3092
sg1627
g1628
sba(imove
move
p3093
(dp3094
g1623
(I103
I1
tp3095
sg1625
(I102
I3
tp3096
sg1627
g1628
sba(imove
move
p3097
(dp3098
g1623
(I103
I1
tp3099
sg1625
(I101
I2
tp3100
sg1627
g1628
sba(imove
move
p3101
(dp3102
g1623
(I103
I1
tp3103
sg1625
(I104
I3
tp3104
sg1627
g1628
sba(imove
move
p3105
(dp3106
g1623
(I103
I1
tp3107
sg1625
(I102
I3
tp3108
sg1627
g1628
sba(imove
move
p3109
(dp3110
g1623
(I103
I1
tp3111
sg1625
(I101
I2
tp3112
sg1627
g1628
sba(imove
move
p3113
(dp3114
g1623
(I103
I1
tp3115
sg1625
(I102
I3
tp3116
sg1627
g1628
sba(imove
move
p3117
(dp3118
g1623
(I102
I7
tp3119
sg1625
(I102
I6
tp3120
sg1627
g1628
sba(imove
move
p3121
(dp3122
g1623
(I102
I7
tp3123
sg1625
(I102
I5
tp3124
sg1627
g1628
sba(imove
move
p3125
(dp3126
g1623
(I102
I7
tp3127
sg1625
(I102
I6
tp3128
sg1627
g1628
sba(imove
move
p3129
(dp3130
g1623
(I102
I7
tp3131
sg1625
(I102
I5
tp3132
sg1627
g1628
sba(imove
move
p3133
(dp3134
g1623
(I102
I7
tp3135
sg1625
(I102
I6
tp3136
sg1627
g1628
sba(imove
move
p3137
(dp3138
g1623
(I102
I7
tp3139
sg1625
(I102
I5
tp3140
sg1627
g1628
sba(imove
move
p3141
(dp3142
g1623
(I102
I7
tp3143
sg1625
(I102
I6
tp3144
sg1627
g1628
sba(imove
move
p3145
(dp3146
g1623
(I102
I7
tp3147
sg1625
(I102
I5
tp3148
sg1627
g1628
sba(imove
move
p3149
(dp3150
g1623
(I102
I7
tp3151
sg1625
(I102
I6
tp3152
sg1627
g1628
sba(imove
move
p3153
(dp3154
g1623
(I102
I7
tp3155
sg1625
(I102
I5
tp3156
sg1627
g1628
sba(imove
move
p3157
(dp3158
g1623
(I102
I7
tp3159
sg1625
(I102
I6
tp3160
sg1627
g1628
sba(imove
move
p3161
(dp3162
g1623
(I102
I7
tp3163
sg1625
(I102
I5
tp3164
sg1627
g1628
sba(imove
move
p3165
(dp3166
g1623
(I102
I7
tp3167
sg1625
(I102
I6
tp3168
sg1627
g1628
sba(imove
move
p3169
(dp3170
g1623
(I102
I7
tp3171
sg1625
(I102
I5
tp3172
sg1627
g1628
sba(imove
move
p3173
(dp3174
g1623
(I102
I7
tp3175
sg1625
(I102
I6
tp3176
sg1627
g1628
sba(imove
move
p3177
(dp3178
g1623
(I102
I7
tp3179
sg1625
(I102
I5
tp3180
sg1627
g1628
sba(imove
move
p3181
(dp3182
g1623
(I102
I7
tp3183
sg1625
(I102
I6
tp3184
sg1627
g1628
sba(imove
move
p3185
(dp3186
g1623
(I102
I7
tp3187
sg1625
(I102
I5
tp3188
sg1627
g1628
sba(imove
move
p3189
(dp3190
g1623
(I102
I7
tp3191
sg1625
(I102
I6
tp3192
sg1627
g1628
sba(imove
move
p3193
(dp3194
g1623
(I102
I7
tp3195
sg1625
(I102
I5
tp3196
sg1627
g1628
sba(imove
move
p3197
(dp3198
g1623
(I102
I7
tp3199
sg1625
(I102
I6
tp3200
sg1627
g1628
sba(imove
move
p3201
(dp3202
g1623
(I102
I7
tp3203
sg1625
(I102
I5
tp3204
sg1627
g1628
sba(imove
move
p3205
(dp3206
g1623
(I102
I7
tp3207
sg1625
(I102
I6
tp3208
sg1627
g1628
sba(imove
move
p3209
(dp3210
g1623
(I102
I7
tp3211
sg1625
(I102
I5
tp3212
sg1627
g1628
sba(imove
move
p3213
(dp3214
g1623
(I102
I7
tp3215
sg1625
(I102
I6
tp3216
sg1627
g1628
sba(imove
move
p3217
(dp3218
g1623
(I102
I7
tp3219
sg1625
(I102
I5
tp3220
sg1627
g1628
sba(imove
move
p3221
(dp3222
g1623
(I102
I7
tp3223
sg1625
(I102
I6
tp3224
sg1627
g1628
sba(imove
move
p3225
(dp3226
g1623
(I102
I7
tp3227
sg1625
(I102
I5
tp3228
sg1627
g1628
sba(imove
move
p3229
(dp3230
g1623
(I102
I7
tp3231
sg1625
(I102
I6
tp3232
sg1627
g1628
sba(imove
move
p3233
(dp3234
g1623
(I102
I1
tp3235
sg1625
(I101
I2
tp3236
sg1627
g1628
sba(imove
move
p3237
(dp3238
g1623
(I102
I1
tp3239
sg1625
(I100
I3
tp3240
sg1627
g1628
sba(imove
move
p3241
(dp3242
g1623
(I102
I1
tp3243
sg1625
(I99
I4
tp3244
sg1627
g1628
sba(imove
move
p3245
(dp3246
g1623
(I102
I1
tp3247
sg1625
(I98
I5
tp3248
sg1627
g1628
sba(imove
move
p3249
(dp3250
g1623
(I102
I1
tp3251
sg1625
(I97
I6
tp3252
sg1627
g1628
sba(imove
move
p3253
(dp3254
g1623
(I102
I1
tp3255
sg1625
(I101
I2
tp3256
sg1627
g1628
sba(imove
move
p3257
(dp3258
g1623
(I102
I1
tp3259
sg1625
(I100
I3
tp3260
sg1627
g1628
sba(imove
move
p3261
(dp3262
g1623
(I102
I1
tp3263
sg1625
(I99
I4
tp3264
sg1627
g1628
sba(imove
move
p3265
(dp3266
g1623
(I102
I1
tp3267
sg1625
(I98
I5
tp3268
sg1627
g1628
sba(imove
move
p3269
(dp3270
g1623
(I102
I1
tp3271
sg1625
(I97
I6
tp3272
sg1627
g1628
sba(imove
move
p3273
(dp3274
g1623
(I102
I1
tp3275
sg1625
(I101
I2
tp3276
sg1627
g1628
sba(imove
move
p3277
(dp3278
g1623
(I102
I1
tp3279
sg1625
(I100
I3
tp3280
sg1627
g1628
sba(imove
move
p3281
(dp3282
g1623
(I102
I1
tp3283
sg1625
(I99
I4
tp3284
sg1627
g1628
sba(imove
move
p3285
(dp3286
g1623
(I102
I1
tp3287
sg1625
(I98
I5
tp3288
sg1627
g1628
sba(imove
move
p3289
(dp3290
g1623
(I102
I1
tp3291
sg1625
(I97
I6
tp3292
sg1627
g1628
sba(imove
move
p3293
(dp3294
g1623
(I102
I1
tp3295
sg1625
(I101
I2
tp3296
sg1627
g1628
sba(imove
move
p3297
(dp3298
g1623
(I102
I1
tp3299
sg1625
(I100
I3
tp3300
sg1627
g1628
sba(imove
move
p3301
(dp3302
g1623
(I102
I1
tp3303
sg1625
(I99
I4
tp3304
sg1627
g1628
sba(imove
move
p3305
(dp3306
g1623
(I102
I1
tp3307
sg1625
(I98
I5
tp3308
sg1627
g1628
sba(imove
move
p3309
(dp3310
g1623
(I102
I1
tp3311
sg1625
(I97
I6
tp3312
sg1627
g1628
sba(imove
move
p3313
(dp3314
g1623
(I102
I1
tp3315
sg1625
(I101
I2
tp3316
sg1627
g1628
sba(imove
move
p3317
(dp3318
g1623
(I102
I1
tp3319
sg1625
(I100
I3
tp3320
sg1627
g1628
sba(imove
move
p3321
(dp3322
g1623
(I102
I1
tp3323
sg1625
(I99
I4
tp3324
sg1627
g1628
sba(imove
move
p3325
(dp3326
g1623
(I102
I1
tp3327
sg1625
(I98
I5
tp3328
sg1627
g1628
sba(imove
move
p3329
(dp3330
g1623
(I102
I1
tp3331
sg1625
(I97
I6
tp3332
sg1627
g1628
sba(imove
move
p3333
(dp3334
g1623
(I102
I1
tp3335
sg1625
(I101
I2
tp3336
sg1627
g1628
sba(imove
move
p3337
(dp3338
g1623
(I102
I1
tp3339
sg1625
(I100
I3
tp3340
sg1627
g1628
sba(imove
move
p3341
(dp3342
g1623
(I102
I1
tp3343
sg1625
(I99
I4
tp3344
sg1627
g1628
sba(imove
move
p3345
(dp3346
g1623
(I102
I1
tp3347
sg1625
(I98
I5
tp3348
sg1627
g1628
sba(imove
move
p3349
(dp3350
g1623
(I102
I1
tp3351
sg1625
(I97
I6
tp3352
sg1627
g1628
sba(imove
move
p3353
(dp3354
g1623
(I102
I1
tp3355
sg1625
(I101
I2
tp3356
sg1627
g1628
sba(imove
move
p3357
(dp3358
g1623
(I102
I1
tp3359
sg1625
(I100
I3
tp3360
sg1627
g1628
sba(imove
move
p3361
(dp3362
g1623
(I102
I1
tp3363
sg1625
(I99
I4
tp3364
sg1627
g1628
sba(imove
move
p3365
(dp3366
g1623
(I102
I1
tp3367
sg1625
(I98
I5
tp3368
sg1627
g1628
sba(imove
move
p3369
(dp3370
g1623
(I102
I1
tp3371
sg1625
(I97
I6
tp3372
sg1627
g1628
sba(imove
move
p3373
(dp3374
g1623
(I102
I1
tp3375
sg1625
(I101
I2
tp3376
sg1627
g1628
sba(imove
move
p3377
(dp3378
g1623
(I102
I1
tp3379
sg1625
(I100
I3
tp3380
sg1627
g1628
sba(imove
move
p3381
(dp3382
g1623
(I102
I1
tp3383
sg1625
(I99
I4
tp3384
sg1627
g1628
sba(imove
move
p3385
(dp3386
g1623
(I102
I1
tp3387
sg1625
(I98
I5
tp3388
sg1627
g1628
sba(imove
move
p3389
(dp3390
g1623
(I102
I1
tp3391
sg1625
(I97
I6
tp3392
sg1627
g1628
sba(imove
move
p3393
(dp3394
g1623
(I102
I1
tp3395
sg1625
(I101
I2
tp3396
sg1627
g1628
sba(imove
move
p3397
(dp3398
g1623
(I102
I1
tp3399
sg1625
(I100
I3
tp3400
sg1627
g1628
sba(imove
move
p3401
(dp3402
g1623
(I102
I1
tp3403
sg1625
(I99
I4
tp3404
sg1627
g1628
sba(imove
move
p3405
(dp3406
g1623
(I102
I1
tp3407
sg1625
(I98
I5
tp3408
sg1627
g1628
sba(imove
move
p3409
(dp3410
g1623
(I102
I1
tp3411
sg1625
(I97
I6
tp3412
sg1627
g1628
sba(imove
move
p3413
(dp3414
g1623
(I102
I1
tp3415
sg1625
(I101
I2
tp3416
sg1627
g1628
sba(imove
move
p3417
(dp3418
g1623
(I102
I1
tp3419
sg1625
(I100
I3
tp3420
sg1627
g1628
sba(imove
move
p3421
(dp3422
g1623
(I102
I1
tp3423
sg1625
(I99
I4
tp3424
sg1627
g1628
sba(imove
move
p3425
(dp3426
g1623
(I102
I1
tp3427
sg1625
(I98
I5
tp3428
sg1627
g1628
sba(imove
move
p3429
(dp3430
g1623
(I102
I1
tp3431
sg1625
(I97
I6
tp3432
sg1627
g1628
sba(imove
move
p3433
(dp3434
g1623
(I102
I1
tp3435
sg1625
(I101
I2
tp3436
sg1627
g1628
sba(imove
move
p3437
(dp3438
g1623
(I102
I1
tp3439
sg1625
(I100
I3
tp3440
sg1627
g1628
sba(imove
move
p3441
(dp3442
g1623
(I102
I1
tp3443
sg1625
(I99
I4
tp3444
sg1627
g1628
sba(imove
move
p3445
(dp3446
g1623
(I102
I1
tp3447
sg1625
(I98
I5
tp3448
sg1627
g1628
sba(imove
move
p3449
(dp3450
g1623
(I102
I1
tp3451
sg1625
(I97
I6
tp3452
sg1627
g1628
sba(imove
move
p3453
(dp3454
g1623
(I102
I1
tp3455
sg1625
(I101
I2
tp3456
sg1627
g1628
sba(imove
move
p3457
(dp3458
g1623
(I102
I1
tp3459
sg1625
(I100
I3
tp3460
sg1627
g1628
sba(imove
move
p3461
(dp3462
g1623
(I102
I1
tp3463
sg1625
(I99
I4
tp3464
sg1627
g1628
sba(imove
move
p3465
(dp3466
g1623
(I102
I1
tp3467
sg1625
(I98
I5
tp3468
sg1627
g1628
sba(imove
move
p3469
(dp3470
g1623
(I102
I1
tp3471
sg1625
(I97
I6
tp3472
sg1627
g1628
sba(imove
move
p3473
(dp3474
g1623
(I102
I1
tp3475
sg1625
(I101
I2
tp3476
sg1627
g1628
sba(imove
move
p3477
(dp3478
g1623
(I102
I1
tp3479
sg1625
(I100
I3
tp3480
sg1627
g1628
sba(imove
move
p3481
(dp3482
g1623
(I102
I1
tp3483
sg1625
(I99
I4
tp3484
sg1627
g1628
sba(imove
move
p3485
(dp3486
g1623
(I102
I1
tp3487
sg1625
(I98
I5
tp3488
sg1627
g1628
sba(imove
move
p3489
(dp3490
g1623
(I102
I1
tp3491
sg1625
(I97
I6
tp3492
sg1627
g1628
sba(imove
move
p3493
(dp3494
g1623
(I102
I1
tp3495
sg1625
(I99
I4
tp3496
sg1627
g1628
sba(imove
move
p3497
(dp3498
g1623
(I99
I7
tp3499
sg1625
(I99
I6
tp3500
sg1627
g1628
sba(imove
move
p3501
(dp3502
g1623
(I99
I7
tp3503
sg1625
(I99
I5
tp3504
sg1627
g1628
sba(imove
move
p3505
(dp3506
g1623
(I99
I7
tp3507
sg1625
(I99
I6
tp3508
sg1627
g1628
sba(imove
move
p3509
(dp3510
g1623
(I99
I7
tp3511
sg1625
(I99
I5
tp3512
sg1627
g1628
sba(imove
move
p3513
(dp3514
g1623
(I99
I7
tp3515
sg1625
(I99
I6
tp3516
sg1627
g1628
sba(imove
move
p3517
(dp3518
g1623
(I99
I7
tp3519
sg1625
(I99
I5
tp3520
sg1627
g1628
sba(imove
move
p3521
(dp3522
g1623
(I99
I7
tp3523
sg1625
(I99
I6
tp3524
sg1627
g1628
sba(imove
move
p3525
(dp3526
g1623
(I99
I7
tp3527
sg1625
(I99
I5
tp3528
sg1627
g1628
sba(imove
move
p3529
(dp3530
g1623
(I99
I7
tp3531
sg1625
(I99
I6
tp3532
sg1627
g1628
sba(imove
move
p3533
(dp3534
g1623
(I99
I7
tp3535
sg1625
(I99
I5
tp3536
sg1627
g1628
sba(imove
move
p3537
(dp3538
g1623
(I99
I7
tp3539
sg1625
(I99
I6
tp3540
sg1627
g1628
sba(imove
move
p3541
(dp3542
g1623
(I99
I7
tp3543
sg1625
(I99
I5
tp3544
sg1627
g1628
sba(imove
move
p3545
(dp3546
g1623
(I99
I7
tp3547
sg1625
(I99
I6
tp3548
sg1627
g1628
sba(imove
move
p3549
(dp3550
g1623
(I99
I7
tp3551
sg1625
(I99
I5
tp3552
sg1627
g1628
sba(imove
move
p3553
(dp3554
g1623
(I99
I7
tp3555
sg1625
(I99
I6
tp3556
sg1627
g1628
sba(imove
move
p3557
(dp3558
g1623
(I99
I7
tp3559
sg1625
(I99
I5
tp3560
sg1627
g1628
sba(imove
move
p3561
(dp3562
g1623
(I99
I7
tp3563
sg1625
(I99
I6
tp3564
sg1627
g1628
sba(imove
move
p3565
(dp3566
g1623
(I99
I7
tp3567
sg1625
(I99
I5
tp3568
sg1627
g1628
sba(imove
move
p3569
(dp3570
g1623
(I99
I7
tp3571
sg1625
(I99
I6
tp3572
sg1627
g1628
sba(imove
move
p3573
(dp3574
g1623
(I99
I7
tp3575
sg1625
(I99
I5
tp3576
sg1627
g1628
sba(imove
move
p3577
(dp3578
g1623
(I99
I7
tp3579
sg1625
(I99
I6
tp3580
sg1627
g1628
sba(imove
move
p3581
(dp3582
g1623
(I99
I7
tp3583
sg1625
(I99
I5
tp3584
sg1627
g1628
sba(imove
move
p3585
(dp3586
g1623
(I99
I7
tp3587
sg1625
(I99
I6
tp3588
sg1627
g1628
sba(imove
move
p3589
(dp3590
g1623
(I99
I7
tp3591
sg1625
(I99
I5
tp3592
sg1627
g1628
sba(imove
move
p3593
(dp3594
g1623
(I99
I7
tp3595
sg1625
(I99
I6
tp3596
sg1627
g1628
sba(imove
move
p3597
(dp3598
S'start'
p3599
(I101
I2
tp3600
sS'end'
p3601
(I101
I4
tp3602
sS'type'
p3603
S'normal'
p3604
sba(imove
move
p3605
(dp3606
g3599
(I101
I7
tp3607
sg3601
(I101
I5
tp3608
sg3603
g3604
sba(imove
move
p3609
(dp3610
g3599
(I103
I1
tp3611
sg3601
(I102
I3
tp3612
sg3603
g3604
sba(imove
move
p3613
(dp3614
g3599
(I103
I8
tp3615
sg3601
(I102
I6
tp3616
sg3603
g3604
sba(imove
move
p3617
(dp3618
g3599
(I102
I1
tp3619
sg3601
(I99
I4
tp3620
sg3603
g3604
sba(imove
move
p3621
(dp3622
g3599
(I102
I8
tp3623
sg3601
(I99
I5
tp3624
sg3603
g3604
sba(imove
move
p3625
(dp3626
S'start'
p3627
(I101
I2
tp3628
sS'end'
p3629
(I101
I4
tp3630
sS'type'
p3631
S'normal'
p3632
sba(imove
move
p3633
(dp3634
g3627
(I101
I7
tp3635
sg3629
(I101
I5
tp3636
sg3631
g3632
sba(imove
move
p3637
(dp3638
g3627
(I103
I1
tp3639
sg3629
(I102
I3
tp3640
sg3631
g3632
sba(imove
move
p3641
(dp3642
g3627
(I103
I8
tp3643
sg3629
(I102
I6
tp3644
sg3631
g3632
sba(imove
move
p3645
(dp3646
g3627
(I102
I1
tp3647
sg3629
(I99
I4
tp3648
sg3631
g3632
sba(imove
move
p3649
(dp3650
g3627
(I102
I8
tp3651
sg3629
(I99
I5
tp3652
sg3631
g3632
sbasS'pieces'
p3653
(dp3654
g377
(ipieces
pawn
p3655
(dp3656
S'color'
p3657
g23
sS'iAm'
p3658
g31
sg29
g377
sS'hasMoved'
p3659
I00
sbsg100
(ipieces
pawn
p3660
(dp3661
g3657
g44
sg3658
g31
sg29
(I102
I7
tp3662
sg3659
I00
sbsg282
(ipieces
rook
p3663
(dp3664
g3657
g23
sg3658
g75
sg29
(I104
I1
tp3665
sbsg63
(ipieces
pawn
p3666
(dp3667
g3657
g23
sg3658
g31
sg29
(I98
I2
tp3668
sg3659
I00
sbsg254
(ipieces
queen
p3669
(dp3670
g3657
g23
sg3658
g202
sg29
(I100
I1
tp3671
sbsg28
(ipieces
rook
p3672
(dp3673
g3657
g23
sg3658
g75
sg29
(I97
I1
tp3674
sbsg378
(ipieces
pawn
p3675
(dp3676
g3657
g23
sg3658
g31
sg29
(I99
I2
tp3677
sg3659
I00
sbsg635
(ipieces
pawn
p3678
(dp3679
g3657
g23
sg3658
g31
sg29
(I104
I2
tp3680
sg3659
I00
sbsg131
(ipieces
knight
p3681
(dp3682
g3657
g23
sg3658
g308
sg29
(I103
I1
tp3683
sbsg187
(ipieces
knight
p3684
(dp3685
g3657
g44
sg3658
g308
sg29
(I103
I8
tp3686
sbsg101
(ipieces
pawn
p3687
(dp3688
g3657
g44
sg3658
g31
sg29
(I104
I7
tp3689
sg3659
I00
sbsg64
(ipieces
pawn
p3690
(dp3691
g3657
g23
sg3658
g31
sg29
(I100
I2
tp3692
sg3659
I00
sbsg158
(ipieces
pawn
p3693
(dp3694
g3657
g44
sg3658
g31
sg29
(I98
I7
tp3695
sg3659
I00
sbsg201
(ipieces
king
p3696
(dp3697
g3657
g23
sg3658
g759
sg29
(I101
I1
tp3698
sg3659
I00
sbsg176
(ipieces
bishop
p3699
(dp3700
g3657
g23
sg3658
g501
sg29
(I99
I1
tp3701
sbsg472
(ipieces
bishop
p3702
(dp3703
g3657
g44
sg3658
g501
sg29
(I102
I8
tp3704
sbsg337
(ipieces
bishop
p3705
(dp3706
g3657
g23
sg3658
g501
sg29
(I102
I1
tp3707
sbsg488
(ipieces
pawn
p3708
(dp3709
g3657
g44
sg3658
g31
sg29
(I101
I7
tp3710
sg3659
I00
sbsg446
(ipieces
bishop
p3711
(dp3712
g3657
g44
sg3658
g501
sg29
(I99
I8
tp3713
sbsg580
(ipieces
rook
p3714
(dp3715
g3657
g44
sg3658
g75
sg29
(I97
I8
tp3716
sbsg389
(ipieces
rook
p3717
(dp3718
g3657
g44
sg3658
g75
sg29
(I104
I8
tp3719
sbsg268
(ipieces
pawn
p3720
(dp3721
g3657
g44
sg3658
g31
sg29
(I97
I7
tp3722
sg3659
I00
sbsg132
(ipieces
pawn
p3723
(dp3724
g3657
g23
sg3658
g31
sg29
(I101
I2
tp3725
sg3659
I00
sbsg159
(ipieces
pawn
p3726
(dp3727
g3657
g44
sg3658
g31
sg29
(I100
I7
tp3728
sg3659
I00
sbsg473
(ipieces
queen
p3729
(dp3730
g3657
g44
sg3658
g202
sg29
(I100
I8
tp3731
sbsg160
(ipieces
knight
p3732
(dp3733
g3657
g44
sg3658
g308
sg29
(I98
I8
tp3734
sbsg188
(ipieces
pawn
p3735
(dp3736
g3657
g44
sg3658
g31
sg29
(I103
I7
tp3737
sg3659
I00
sbsg65
(ipieces
knight
p3738
(dp3739
g3657
g23
sg3658
g308
sg29
(I98
I1
tp3740
sbsg636
(ipieces
pawn
p3741
(dp3742
g3657
g23
sg3658
g31
sg29
(I102
I2
tp3743
sg3659
I00
sbsg133
(ipieces
pawn
p3744
(dp3745
g3657
g23
sg3658
g31
sg29
(I103
I2
tp3746
sg3659
I00
sbsg269
(ipieces
pawn
p3747
(dp3748
g3657
g44
sg3658
g31
sg29
(I99
I7
tp3749
sg3659
I00
sbsg46
(ipieces
king
p3750
(dp3751
g3657
g44
sg3658
g759
sg29
(I101
I8
tp3752
sg3659
I00
sbssb.