(iboard
board
p0
(dp1
S'squares'
p2
(dp3
(I97
I2
tp4
(isquare
square
p5
(dp6
S'neighbors'
p7
(dp8
S'right'
p9
(I98
I2
tp10
sS'top'
p11
(I97
I3
tp12
sS'btm-right'
p13
(I98
I1
tp14
sS'btm'
p15
(I97
I1
tp16
sS'top-right'
p17
(I98
I3
tp18
sS'left'
p19
NsS'top-left'
p20
NsS'btm-left'
p21
NssS'contentColor'
p22
S'_'
p23
sS'blackAttackingMe'
p24
(lp25
sS'whiteAttackingMe'
p26
(lp27
sS'pos'
p28
g4
sS'content'
p29
g23
sbs(I102
I7
tp30
(isquare
square
p31
(dp32
g7
(dp33
g9
(I103
I7
tp34
sg11
(I102
I8
tp35
sg13
(I103
I6
tp36
sg15
(I102
I6
tp37
sg17
(I103
I8
tp38
sg19
(I101
I7
tp39
sg20
(I101
I8
tp40
sg21
(I101
I6
tp41
ssg22
g23
sg24
(lp42
sg26
(lp43
sg28
g30
sg29
g23
sbs(I99
I3
tp44
(isquare
square
p45
(dp46
g7
(dp47
g9
(I100
I3
tp48
sg11
(I99
I4
tp49
sg13
(I100
I2
tp50
sg15
(I99
I2
tp51
sg17
(I100
I4
tp52
sg19
(I98
I3
tp53
sg20
(I98
I4
tp54
sg21
(I98
I2
tp55
ssg22
g23
sg24
(lp56
sg26
(lp57
sg28
g44
sg29
g23
sbs(I104
I1
tp58
(isquare
square
p59
(dp60
g7
(dp61
g13
Nsg11
(I104
I2
tp62
sg9
Nsg15
Nsg21
Nsg20
(I103
I2
tp63
sg19
(I103
I1
tp64
ssg22
g23
sg24
(lp65
sg26
(lp66
(I104
I8
tp67
asg28
g58
sg29
g23
sbs(I104
I5
tp68
(isquare
square
p69
(dp70
g7
(dp71
g9
Nsg11
(I104
I6
tp72
sg13
Nsg15
(I104
I4
tp73
sg17
Nsg21
(I103
I4
tp74
sg20
(I103
I6
tp75
sg19
(I103
I5
tp76
ssg22
g23
sg24
(lp77
sg26
(lp78
g67
asg28
g68
sg29
g23
sbs(I103
I6
tp79
(isquare
square
p80
(dp81
g7
(dp82
g9
(I104
I6
tp83
sg11
(I103
I7
tp84
sg13
(I104
I5
tp85
sg15
(I103
I5
tp86
sg17
(I104
I7
tp87
sg19
(I102
I6
tp88
sg20
(I102
I7
tp89
sg21
(I102
I5
tp90
ssg22
g23
sg24
(lp91
sg26
(lp92
sg28
g79
sg29
g23
sbs(I100
I4
tp93
(isquare
square
p94
(dp95
g7
(dp96
g9
(I101
I4
tp97
sg11
(I100
I5
tp98
sg13
(I101
I3
tp99
sg15
(I100
I3
tp100
sg17
(I101
I5
tp101
sg19
(I99
I4
tp102
sg20
(I99
I5
tp103
sg21
(I99
I3
tp104
ssg22
g23
sg24
(lp105
sg26
(lp106
sg28
g93
sg29
g23
sbs(I102
I3
tp107
(isquare
square
p108
(dp109
g7
(dp110
g9
(I103
I3
tp111
sg11
(I102
I4
tp112
sg13
(I103
I2
tp113
sg15
(I102
I2
tp114
sg17
(I103
I4
tp115
sg19
(I101
I3
tp116
sg20
(I101
I4
tp117
sg21
(I101
I2
tp118
ssg22
g23
sg24
(lp119
sg26
(lp120
sg28
g107
sg29
g23
sbs(I97
I5
tp121
(isquare
square
p122
(dp123
g7
(dp124
g9
(I98
I5
tp125
sg11
(I97
I6
tp126
sg13
(I98
I4
tp127
sg15
(I97
I4
tp128
sg17
(I98
I6
tp129
sg19
Nsg20
Nsg21
Nssg22
g23
sg24
(lp130
sg26
(lp131
(I98
I5
tp132
asg28
g121
sg29
g23
sbs(I99
I6
tp133
(isquare
square
p134
(dp135
g7
(dp136
g9
(I100
I6
tp137
sg11
(I99
I7
tp138
sg13
(I100
I5
tp139
sg15
(I99
I5
tp140
sg17
(I100
I7
tp141
sg19
(I98
I6
tp142
sg20
(I98
I7
tp143
sg21
(I98
I5
tp144
ssg22
g23
sg24
(lp145
sg26
(lp146
g132
asg28
g133
sg29
g23
sbs(I98
I2
tp147
(isquare
square
p148
(dp149
g7
(dp150
g9
(I99
I2
tp151
sg11
(I98
I3
tp152
sg13
(I99
I1
tp153
sg15
(I98
I1
tp154
sg17
(I99
I3
tp155
sg19
(I97
I2
tp156
sg20
(I97
I3
tp157
sg21
(I97
I1
tp158
ssg22
g23
sg24
(lp159
sg26
(lp160
sg28
g147
sg29
g23
sbs(I104
I6
tp161
(isquare
square
p162
(dp163
g7
(dp164
g9
Nsg11
(I104
I7
tp165
sg13
Nsg15
(I104
I5
tp166
sg17
Nsg21
(I103
I5
tp167
sg20
(I103
I7
tp168
sg19
(I103
I6
tp169
ssg22
g23
sg24
(lp170
sg26
(lp171
g67
asg28
g161
sg29
g23
sbs(I100
I1
tp172
(isquare
square
p173
(dp174
g7
(dp175
g13
Nsg11
(I100
I2
tp176
sg9
(I101
I1
tp177
sg15
Nsg17
(I101
I2
tp178
sg21
Nsg20
(I99
I2
tp179
sg19
(I99
I1
tp180
ssg22
g23
sg24
(lp181
sg26
(lp182
sg28
g172
sg29
g23
sbs(I97
I1
tp183
(isquare
square
p184
(dp185
g7
(dp186
g13
Nsg11
(I97
I2
tp187
sg9
(I98
I1
tp188
sg15
Nsg17
(I98
I2
tp189
sg21
Nsg20
Nsg19
Nssg22
g23
sg24
(lp190
sg26
(lp191
sg28
g183
sg29
g23
sbs(I101
I5
tp192
(isquare
square
p193
(dp194
g7
(dp195
g9
(I102
I5
tp196
sg11
(I101
I6
tp197
sg13
(I102
I4
tp198
sg15
(I101
I4
tp199
sg17
(I102
I6
tp200
sg19
(I100
I5
tp201
sg20
(I100
I6
tp202
sg21
(I100
I4
tp203
ssg22
g23
sg24
(lp204
(I98
I8
tp205
asg26
(lp206
sg28
g192
sg29
g23
sbs(I102
I4
tp207
(isquare
square
p208
(dp209
g7
(dp210
g9
(I103
I4
tp211
sg11
(I102
I5
tp212
sg13
(I103
I3
tp213
sg15
(I102
I3
tp214
sg17
(I103
I5
tp215
sg19
(I101
I4
tp216
sg20
(I101
I5
tp217
sg21
(I101
I3
tp218
ssg22
g23
sg24
(lp219
g205
asg26
(lp220
sg28
g207
sg29
g23
sbs(I99
I2
tp221
(isquare
square
p222
(dp223
g7
(dp224
g9
(I100
I2
tp225
sg11
(I99
I3
tp226
sg13
(I100
I1
tp227
sg15
(I99
I1
tp228
sg17
(I100
I3
tp229
sg19
(I98
I2
tp230
sg20
(I98
I3
tp231
sg21
(I98
I1
tp232
ssg22
g23
sg24
(lp233
sg26
(lp234
sg28
g221
sg29
g23
sbs(I98
I6
tp235
(isquare
square
p236
(dp237
g7
(dp238
g9
(I99
I6
tp239
sg11
(I98
I7
tp240
sg13
(I99
I5
tp241
sg15
(I98
I5
tp242
sg17
(I99
I7
tp243
sg19
(I97
I6
tp244
sg20
(I97
I7
tp245
sg21
(I97
I5
tp246
ssg22
g23
sg24
(lp247
sg26
(lp248
g132
asg28
g235
sg29
g23
sbs(I104
I2
tp249
(isquare
square
p250
(dp251
g7
(dp252
g9
Nsg11
(I104
I3
tp253
sg13
Nsg15
(I104
I1
tp254
sg17
Nsg21
(I103
I1
tp255
sg20
(I103
I3
tp256
sg19
(I103
I2
tp257
ssg22
g23
sg24
(lp258
g205
asg26
(lp259
g67
asg28
g249
sg29
g23
sbs(I103
I5
tp260
(isquare
square
p261
(dp262
g7
(dp263
g9
(I104
I5
tp264
sg11
(I103
I6
tp265
sg13
(I104
I4
tp266
sg15
(I103
I4
tp267
sg17
(I104
I6
tp268
sg19
(I102
I5
tp269
sg20
(I102
I6
tp270
sg21
(I102
I4
tp271
ssg22
g23
sg24
(lp272
sg26
(lp273
sg28
g260
sg29
g23
sbs(I103
I1
tp274
(isquare
square
p275
(dp276
g7
(dp277
g13
Nsg11
(I103
I2
tp278
sg9
(I104
I1
tp279
sg15
Nsg17
(I104
I2
tp280
sg21
Nsg20
(I102
I2
tp281
sg19
(I102
I1
tp282
ssg22
g23
sg24
(lp283
sg26
(lp284
sg28
g274
sg29
g23
sbs(I100
I5
tp285
(isquare
square
p286
(dp287
g7
(dp288
g9
(I101
I5
tp289
sg11
(I100
I6
tp290
sg13
(I101
I4
tp291
sg15
(I100
I4
tp292
sg17
(I101
I6
tp293
sg19
(I99
I5
tp294
sg20
(I99
I6
tp295
sg21
(I99
I4
tp296
ssg22
g23
sg24
(lp297
sg26
(lp298
sg28
g285
sg29
g23
sbs(I101
I2
tp299
(isquare
square
p300
(dp301
g7
(dp302
g9
(I102
I2
tp303
sg11
(I101
I3
tp304
sg13
(I102
I1
tp305
sg15
(I101
I1
tp306
sg17
(I102
I3
tp307
sg19
(I100
I2
tp308
sg20
(I100
I3
tp309
sg21
(I100
I1
tp310
ssg22
g23
sg24
(lp311
sg26
(lp312
sg28
g299
sg29
g23
sbs(I97
I4
tp313
(isquare
square
p314
(dp315
g7
(dp316
g9
(I98
I4
tp317
sg11
(I97
I5
tp318
sg13
(I98
I3
tp319
sg15
(I97
I3
tp320
sg17
(I98
I5
tp321
sg19
Nsg20
Nsg21
Nssg22
g23
sg24
(lp322
sg26
(lp323
g132
asg28
g313
sg29
g23
sbs(I102
I2
tp324
(isquare
square
p325
(dp326
g7
(dp327
g9
(I103
I2
tp328
sg11
(I102
I3
tp329
sg13
(I103
I1
tp330
sg15
(I102
I1
tp331
sg17
(I103
I3
tp332
sg19
(I101
I2
tp333
sg20
(I101
I3
tp334
sg21
(I101
I1
tp335
ssg22
g23
sg24
(lp336
sg26
(lp337
sg28
g324
sg29
g23
sbs(I98
I3
tp338
(isquare
square
p339
(dp340
g7
(dp341
g9
(I99
I3
tp342
sg11
(I98
I4
tp343
sg13
(I99
I2
tp344
sg15
(I98
I2
tp345
sg17
(I99
I4
tp346
sg19
(I97
I3
tp347
sg20
(I97
I4
tp348
sg21
(I97
I2
tp349
ssg22
g23
sg24
(lp350
sg26
(lp351
sg28
g338
sg29
g23
sbs(I104
I7
tp352
(isquare
square
p353
(dp354
g7
(dp355
g9
Nsg11
(I104
I8
tp356
sg13
Nsg15
(I104
I6
tp357
sg17
Nsg21
(I103
I6
tp358
sg20
(I103
I8
tp359
sg19
(I103
I7
tp360
ssg22
g23
sg24
(lp361
sg26
(lp362
g67
asg28
g352
sg29
g23
sbs(I100
I2
tp363
(isquare
square
p364
(dp365
g7
(dp366
g9
(I101
I2
tp367
sg11
(I100
I3
tp368
sg13
(I101
I1
tp369
sg15
(I100
I1
tp370
sg17
(I101
I3
tp371
sg19
(I99
I2
tp372
sg20
(I99
I3
tp373
sg21
(I99
I1
tp374
ssg22
g23
sg24
(lp375
sg26
(lp376
sg28
g363
sg29
g23
sbs(I102
I5
tp377
(isquare
square
p378
(dp379
g7
(dp380
g9
(I103
I5
tp381
sg11
(I102
I6
tp382
sg13
(I103
I4
tp383
sg15
(I102
I4
tp384
sg17
(I103
I6
tp385
sg19
(I101
I5
tp386
sg20
(I101
I6
tp387
sg21
(I101
I4
tp388
ssg22
g23
sg24
(lp389
sg26
(lp390
sg28
g377
sg29
g23
sbs(I99
I5
tp391
(isquare
square
p392
(dp393
g7
(dp394
g9
(I100
I5
tp395
sg11
(I99
I6
tp396
sg13
(I100
I4
tp397
sg15
(I99
I4
tp398
sg17
(I100
I6
tp399
sg19
(I98
I5
tp400
sg20
(I98
I6
tp401
sg21
(I98
I4
tp402
ssg22
g23
sg24
(lp403
sg26
(lp404
g132
asg28
g391
sg29
g23
sbs(I98
I7
tp405
(isquare
square
p406
(dp407
g7
(dp408
g9
(I99
I7
tp409
sg11
(I98
I8
tp410
sg13
(I99
I6
tp411
sg15
(I98
I6
tp412
sg17
(I99
I8
tp413
sg19
(I97
I7
tp414
sg20
(I97
I8
tp415
sg21
(I97
I6
tp416
ssg22
g23
sg24
(lp417
(I97
I8
tp418
asg26
(lp419
sg28
g405
sg29
g23
sbs(I104
I3
tp420
(isquare
square
p421
(dp422
g7
(dp423
g9
Nsg11
(I104
I4
tp424
sg13
Nsg15
(I104
I2
tp425
sg17
Nsg21
(I103
I2
tp426
sg20
(I103
I4
tp427
sg19
(I103
I3
tp428
ssg22
g23
sg24
(lp429
sg26
(lp430
g67
asg28
g420
sg29
g23
sbs(I101
I7
tp431
(isquare
square
p432
(dp433
g7
(dp434
g9
(I102
I7
tp435
sg11
(I101
I8
tp436
sg13
(I102
I6
tp437
sg15
(I101
I6
tp438
sg17
(I102
I8
tp439
sg19
(I100
I7
tp440
sg20
(I100
I8
tp441
sg21
(I100
I6
tp442
ssg22
g23
sg24
(lp443
sg26
(lp444
sg28
g431
sg29
g23
sbs(I100
I6
tp445
(isquare
square
p446
(dp447
g7
(dp448
g9
(I101
I6
tp449
sg11
(I100
I7
tp450
sg13
(I101
I5
tp451
sg15
(I100
I5
tp452
sg17
(I101
I7
tp453
sg19
(I99
I6
tp454
sg20
(I99
I7
tp455
sg21
(I99
I5
tp456
ssg22
g23
sg24
(lp457
g205
asg26
(lp458
sg28
g445
sg29
g23
sbs(I102
I1
tp459
(isquare
square
p460
(dp461
g7
(dp462
g13
Nsg11
(I102
I2
tp463
sg9
(I103
I1
tp464
sg15
Nsg17
(I103
I2
tp465
sg21
Nsg20
(I101
I2
tp466
sg19
(I101
I1
tp467
ssg22
g23
sg24
(lp468
sg26
(lp469
sg28
g459
sg29
g23
sbs(I99
I1
tp470
(isquare
square
p471
(dp472
g7
(dp473
g13
Nsg11
(I99
I2
tp474
sg9
(I100
I1
tp475
sg15
Nsg17
(I100
I2
tp476
sg21
Nsg20
(I98
I2
tp477
sg19
(I98
I1
tp478
ssg22
g23
sg24
(lp479
sg26
(lp480
sg28
g470
sg29
g23
sbs(I101
I4
tp481
(isquare
square
p482
(dp483
g7
(dp484
g9
(I102
I4
tp485
sg11
(I101
I5
tp486
sg13
(I102
I3
tp487
sg15
(I101
I3
tp488
sg17
(I102
I5
tp489
sg19
(I100
I4
tp490
sg20
(I100
I5
tp491
sg21
(I100
I3
tp492
ssg22
g23
sg24
(lp493
sg26
(lp494
sg28
g481
sg29
g23
sbs(I99
I8
tp495
(isquare
square
p496
(dp497
g7
(dp498
g9
(I100
I8
tp499
sg11
Nsg13
(I100
I7
tp500
sg15
(I99
I7
tp501
sg17
Nsg21
(I98
I7
tp502
sg20
Nsg19
(I98
I8
tp503
ssg22
g23
sg24
(lp504
sg26
(lp505
g67
asg28
g495
sg29
g23
sbs(I97
I8
tp506
(isquare
square
p507
(dp508
g7
(dp509
g9
(I98
I8
tp510
sg11
Nsg13
(I98
I7
tp511
sg15
(I97
I7
tp512
sg17
Nsg19
Nsg20
Nsg21
Nssg22
S'B'
p513
sg24
(lp514
sg26
(lp515
sg28
g506
sg29
S'King'
p516
sbs(I104
I8
tp517
(isquare
square
p518
(dp519
g7
(dp520
g9
Nsg11
Nsg13
Nsg15
(I104
I7
tp521
sg17
Nsg21
(I103
I7
tp522
sg20
Nsg19
(I103
I8
tp523
ssg22
S'W'
p524
sg24
(lp525
sg26
(lp526
sg28
g517
sg29
S'Rook'
p527
sbs(I100
I3
tp528
(isquare
square
p529
(dp530
g7
(dp531
g9
(I101
I3
tp532
sg11
(I100
I4
tp533
sg13
(I101
I2
tp534
sg15
(I100
I2
tp535
sg17
(I101
I4
tp536
sg19
(I99
I3
tp537
sg20
(I99
I4
tp538
sg21
(I99
I2
tp539
ssg22
g23
sg24
(lp540
sg26
(lp541
sg28
g528
sg29
g23
sbs(I97
I7
tp542
(isquare
square
p543
(dp544
g7
(dp545
g9
(I98
I7
tp546
sg11
(I97
I8
tp547
sg13
(I98
I6
tp548
sg15
(I97
I6
tp549
sg17
(I98
I8
tp550
sg19
Nsg20
Nsg21
Nssg22
g23
sg24
(lp551
g205
ag418
asg26
(lp552
sg28
g542
sg29
g23
sbs(I99
I4
tp553
(isquare
square
p554
(dp555
g7
(dp556
g9
(I100
I4
tp557
sg11
(I99
I5
tp558
sg13
(I100
I3
tp559
sg15
(I99
I3
tp560
sg17
(I100
I5
tp561
sg19
(I98
I4
tp562
sg20
(I98
I5
tp563
sg21
(I98
I3
tp564
ssg22
g23
sg24
(lp565
sg26
(lp566
g132
asg28
g553
sg29
g23
sbs(I98
I4
tp567
(isquare
square
p568
(dp569
g7
(dp570
g9
(I99
I4
tp571
sg11
(I98
I5
tp572
sg13
(I99
I3
tp573
sg15
(I98
I3
tp574
sg17
(I99
I5
tp575
sg19
(I97
I4
tp576
sg20
(I97
I5
tp577
sg21
(I97
I3
tp578
ssg22
g23
sg24
(lp579
sg26
(lp580
g132
asg28
g567
sg29
g23
sbs(I104
I4
tp581
(isquare
square
p582
(dp583
g7
(dp584
g9
Nsg11
(I104
I5
tp585
sg13
Nsg15
(I104
I3
tp586
sg17
Nsg21
(I103
I3
tp587
sg20
(I103
I5
tp588
sg19
(I103
I4
tp589
ssg22
g23
sg24
(lp590
sg26
(lp591
g67
asg28
g581
sg29
g23
sbs(I103
I3
tp592
(isquare
square
p593
(dp594
g7
(dp595
g9
(I104
I3
tp596
sg11
(I103
I4
tp597
sg13
(I104
I2
tp598
sg15
(I103
I2
tp599
sg17
(I104
I4
tp600
sg19
(I102
I3
tp601
sg20
(I102
I4
tp602
sg21
(I102
I2
tp603
ssg22
g23
sg24
(lp604
g205
asg26
(lp605
sg28
g592
sg29
g23
sbs(I100
I7
tp606
(isquare
square
p607
(dp608
g7
(dp609
g9
(I101
I7
tp610
sg11
(I100
I8
tp611
sg13
(I101
I6
tp612
sg15
(I100
I6
tp613
sg17
(I101
I8
tp614
sg19
(I99
I7
tp615
sg20
(I99
I8
tp616
sg21
(I99
I6
tp617
ssg22
g23
sg24
(lp618
sg26
(lp619
sg28
g606
sg29
g23
sbs(I97
I3
tp620
(isquare
square
p621
(dp622
g7
(dp623
g9
(I98
I3
tp624
sg11
(I97
I4
tp625
sg13
(I98
I2
tp626
sg15
(I97
I2
tp627
sg17
(I98
I4
tp628
sg19
Nsg20
Nsg21
Nssg22
g23
sg24
(lp629
sg26
(lp630
sg28
g620
sg29
g23
sbs(I100
I8
tp631
(isquare
square
p632
(dp633
g7
(dp634
g9
(I101
I8
tp635
sg11
Nsg13
(I101
I7
tp636
sg15
(I100
I7
tp637
sg17
Nsg21
(I99
I7
tp638
sg20
Nsg19
(I99
I8
tp639
ssg22
g23
sg24
(lp640
sg26
(lp641
g67
asg28
g631
sg29
g23
sbs(I101
I6
tp642
(isquare
square
p643
(dp644
g7
(dp645
g9
(I102
I6
tp646
sg11
(I101
I7
tp647
sg13
(I102
I5
tp648
sg15
(I101
I5
tp649
sg17
(I102
I7
tp650
sg19
(I100
I6
tp651
sg20
(I100
I7
tp652
sg21
(I100
I5
tp653
ssg22
g23
sg24
(lp654
sg26
(lp655
sg28
g642
sg29
g23
sbs(I98
I8
tp656
(isquare
square
p657
(dp658
g7
(dp659
g9
(I99
I8
tp660
sg11
Nsg13
(I99
I7
tp661
sg15
(I98
I7
tp662
sg17
Nsg21
(I97
I7
tp663
sg20
Nsg19
(I97
I8
tp664
ssg22
g513
sg24
(lp665
g418
asg26
(lp666
g67
asg28
g656
sg29
S'Bishop'
p667
sbs(I102
I8
tp668
(isquare
square
p669
(dp670
g7
(dp671
g9
(I103
I8
tp672
sg11
Nsg13
(I103
I7
tp673
sg15
(I102
I7
tp674
sg17
Nsg21
(I101
I7
tp675
sg20
Nsg19
(I101
I8
tp676
ssg22
g23
sg24
(lp677
sg26
(lp678
g67
asg28
g668
sg29
g23
sbs(I102
I6
tp679
(isquare
square
p680
(dp681
g7
(dp682
g9
(I103
I6
tp683
sg11
(I102
I7
tp684
sg13
(I103
I5
tp685
sg15
(I102
I5
tp686
sg17
(I103
I7
tp687
sg19
(I101
I6
tp688
sg20
(I101
I7
tp689
sg21
(I101
I5
tp690
ssg22
g23
sg24
(lp691
sg26
(lp692
sg28
g679
sg29
g23
sbs(I103
I7
tp693
(isquare
square
p694
(dp695
g7
(dp696
g9
(I104
I7
tp697
sg11
(I103
I8
tp698
sg13
(I104
I6
tp699
sg15
(I103
I6
tp700
sg17
(I104
I8
tp701
sg19
(I102
I7
tp702
sg20
(I102
I8
tp703
sg21
(I102
I6
tp704
ssg22
g23
sg24
(lp705
sg26
(lp706
sg28
g693
sg29
g23
sbs(I98
I1
tp707
(isquare
square
p708
(dp709
g7
(dp710
g13
Nsg11
(I98
I2
tp711
sg9
(I99
I1
tp712
sg15
Nsg17
(I99
I2
tp713
sg21
Nsg20
(I97
I2
tp714
sg19
(I97
I1
tp715
ssg22
g23
sg24
(lp716
sg26
(lp717
sg28
g707
sg29
g23
sbs(I101
I1
tp718
(isquare
square
p719
(dp720
g7
(dp721
g13
Nsg11
(I101
I2
tp722
sg9
(I102
I1
tp723
sg15
Nsg17
(I102
I2
tp724
sg21
Nsg20
(I100
I2
tp725
sg19
(I100
I1
tp726
ssg22
g23
sg24
(lp727
sg26
(lp728
sg28
g718
sg29
g23
sbs(I97
I6
tp729
(isquare
square
p730
(dp731
g7
(dp732
g9
(I98
I6
tp733
sg11
(I97
I7
tp734
sg13
(I98
I5
tp735
sg15
(I97
I5
tp736
sg17
(I98
I7
tp737
sg19
Nsg20
Nsg21
Nssg22
g23
sg24
(lp738
sg26
(lp739
g132
asg28
g729
sg29
g23
sbs(I103
I2
tp740
(isquare
square
p741
(dp742
g7
(dp743
g9
(I104
I2
tp744
sg11
(I103
I3
tp745
sg13
(I104
I1
tp746
sg15
(I103
I1
tp747
sg17
(I104
I3
tp748
sg19
(I102
I2
tp749
sg20
(I102
I3
tp750
sg21
(I102
I1
tp751
ssg22
g23
sg24
(lp752
sg26
(lp753
sg28
g740
sg29
g23
sbs(I99
I7
tp754
(isquare
square
p755
(dp756
g7
(dp757
g9
(I100
I7
tp758
sg11
(I99
I8
tp759
sg13
(I100
I6
tp760
sg15
(I99
I6
tp761
sg17
(I100
I8
tp762
sg19
(I98
I7
tp763
sg20
(I98
I8
tp764
sg21
(I98
I6
tp765
ssg22
g23
sg24
(lp766
g205
asg26
(lp767
sg28
g754
sg29
g23
sbs(I98
I5
tp768
(isquare
square
p769
(dp770
g7
(dp771
g9
(I99
I5
tp772
sg11
(I98
I6
tp773
sg13
(I99
I4
tp774
sg15
(I98
I4
tp775
sg17
(I99
I6
tp776
sg19
(I97
I5
tp777
sg20
(I97
I6
tp778
sg21
(I97
I4
tp779
ssg22
g524
sg24
(lp780
sg26
(lp781
sg28
g768
sg29
g516
sbs(I101
I3
tp782
(isquare
square
p783
(dp784
g7
(dp785
g9
(I102
I3
tp786
sg11
(I101
I4
tp787
sg13
(I102
I2
tp788
sg15
(I101
I2
tp789
sg17
(I102
I4
tp790
sg19
(I100
I3
tp791
sg20
(I100
I4
tp792
sg21
(I100
I2
tp793
ssg22
g23
sg24
(lp794
sg26
(lp795
sg28
g782
sg29
g23
sbs(I103
I8
tp796
(isquare
square
p797
(dp798
g7
(dp799
g9
(I104
I8
tp800
sg11
Nsg13
(I104
I7
tp801
sg15
(I103
I7
tp802
sg17
Nsg21
(I102
I7
tp803
sg20
Nsg19
(I102
I8
tp804
ssg22
g23
sg24
(lp805
sg26
(lp806
g67
asg28
g796
sg29
g23
sbs(I101
I8
tp807
(isquare
square
p808
(dp809
g7
(dp810
g9
(I102
I8
tp811
sg11
Nsg13
(I102
I7
tp812
sg15
(I101
I7
tp813
sg17
Nsg21
(I100
I7
tp814
sg20
Nsg19
(I100
I8
tp815
ssg22
g23
sg24
(lp816
sg26
(lp817
g67
asg28
g807
sg29
g23
sbs(I103
I4
tp818
(isquare
square
p819
(dp820
g7
(dp821
g9
(I104
I4
tp822
sg11
(I103
I5
tp823
sg13
(I104
I3
tp824
sg15
(I103
I3
tp825
sg17
(I104
I5
tp826
sg19
(I102
I4
tp827
sg20
(I102
I5
tp828
sg21
(I102
I3
tp829
ssg22
g23
sg24
(lp830
sg26
(lp831
sg28
g818
sg29
g23
sbssS'temp'
p832
NsS'kings'
p833
(dp834
g513
g418
sg524
g132
ssS'turnCount'
p835
I74
sS'whitesTurn'
p836
I01
sS'moves'
p837
(lp838
(imove
move
p839
(dp840
S'start'
p841
(I101
I2
tp842
sS'end'
p843
(I101
I4
tp844
sS'type'
p845
S'normal'
p846
sba(imove
move
p847
(dp848
g841
(I101
I7
tp849
sg843
(I101
I5
tp850
sg845
g846
sba(imove
move
p851
(dp852
g841
(I103
I1
tp853
sg843
(I102
I3
tp854
sg845
g846
sba(imove
move
p855
(dp856
g841
(I97
I7
tp857
sg843
(I97
I5
tp858
sg845
g846
sba(imove
move
p859
(dp860
S'start'
p861
(I101
I2
tp862
sS'end'
p863
(I101
I4
tp864
sS'type'
p865
S'normal'
p866
sba(imove
move
p867
(dp868
g861
(I101
I7
tp869
sg863
(I101
I5
tp870
sg865
g866
sba(imove
move
p871
(dp872
g861
(I103
I1
tp873
sg863
(I102
I3
tp874
sg865
g866
sba(imove
move
p875
(dp876
g861
(I102
I7
tp877
sg863
(I102
I5
tp878
sg865
g866
sba(imove
move
p879
(dp880
g861
(I101
I4
tp881
sg863
(I102
I5
tp882
sg865
g866
sba(imove
move
p883
(dp884
g861
(I103
I7
tp885
sg863
(I103
I6
tp886
sg865
g866
sba(imove
move
p887
(dp888
g861
(I102
I5
tp889
sg863
(I103
I6
tp890
sg865
g866
sba(imove
move
p891
(dp892
g861
(I102
I8
tp893
sg863
(I101
I7
tp894
sg865
g866
sba(imove
move
p895
(dp896
g861
(I103
I6
tp897
sg863
(I104
I7
tp898
sg865
g866
sba(imove
move
p899
(dp900
g861
(I100
I7
tp901
sg863
(I100
I6
tp902
sg865
g866
sba(imove
move
p903
(dp904
g861
(I104
I7
tp905
sg863
(I103
I8
tp906
sg865
g866
sba(imove
move
p907
(dp908
S'start'
p909
(I101
I2
tp910
sS'end'
p911
(I101
I4
tp912
sS'type'
p913
S'normal'
p914
sba(imove
move
p915
(dp916
g909
(I102
I7
tp917
sg911
(I102
I5
tp918
sg913
g914
sba(imove
move
p919
(dp920
g909
(I101
I4
tp921
sg911
(I102
I5
tp922
sg913
g914
sba(imove
move
p923
(dp924
g909
(I103
I7
tp925
sg911
(I103
I6
tp926
sg913
g914
sba(imove
move
p927
(dp928
g909
(I102
I5
tp929
sg911
(I103
I6
tp930
sg913
g914
sba(imove
move
p931
(dp932
g909
(I101
I7
tp933
sg911
(I101
I6
tp934
sg913
g914
sba(imove
move
p935
(dp936
g909
(I103
I6
tp937
sg911
(I104
I7
tp938
sg913
g914
sba(imove
move
p939
(dp940
g909
(I100
I7
tp941
sg911
(I100
I6
tp942
sg913
g914
sba(imove
move
p943
(dp944
g909
(I104
I7
tp945
sg911
(I103
I8
tp946
sg913
g914
sba(imove
move
p947
(dp948
S'start'
p949
(I101
I2
tp950
sS'end'
p951
(I101
I4
tp952
sS'type'
p953
S'normal'
p954
sba(imove
move
p955
(dp956
g949
(I102
I7
tp957
sg951
(I102
I5
tp958
sg953
g954
sba(imove
move
p959
(dp960
g949
(I101
I4
tp961
sg951
(I102
I5
tp962
sg953
g954
sba(imove
move
p963
(dp964
g949
(I103
I7
tp965
sg951
(I103
I6
tp966
sg953
g954
sba(imove
move
p967
(dp968
g949
(I102
I5
tp969
sg951
(I103
I6
tp970
sg953
g954
sba(imove
move
p971
(dp972
g949
(I101
I7
tp973
sg951
(I101
I6
tp974
sg953
g954
sba(imove
move
p975
(dp976
g949
(I103
I6
tp977
sg951
(I104
I7
tp978
sg953
g954
sba(imove
move
p979
(dp980
g949
(I102
I8
tp981
sg951
(I101
I7
tp982
sg953
g954
sba(imove
move
p983
(dp984
S'start'
p985
(I101
I2
tp986
sS'end'
p987
(I101
I4
tp988
sS'type'
p989
S'normal'
p990
sba(imove
move
p991
(dp992
g985
(I100
I7
tp993
sg987
(I100
I5
tp994
sg989
g990
sba(imove
move
p995
(dp996
g985
(I101
I4
tp997
sg987
(I100
I5
tp998
sg989
g990
sba(imove
move
p999
(dp1000
g985
(I99
I7
tp1001
sg987
(I99
I6
tp1002
sg989
g990
sba(imove
move
p1003
(dp1004
g985
(I100
I5
tp1005
sg987
(I99
I6
tp1006
sg989
g990
sba(imove
move
p1007
(dp1008
g985
(I100
I8
tp1009
sg987
(I100
I2
tp1010
sg989
g990
sba(imove
move
p1011
(dp1012
S'start'
p1013
(I99
I1
tp1014
sS'end'
p1015
(I100
I2
tp1016
sS'type'
p1017
S'normal'
p1018
sba(imove
move
p1019
(dp1020
g1013
(I101
I7
tp1021
sg1015
(I101
I6
tp1022
sg1017
g1018
sba(imove
move
p1023
(dp1024
g1013
(I99
I2
tp1025
sg1015
(I99
I4
tp1026
sg1017
g1018
sba(imove
move
p1027
(dp1028
g1013
(I98
I7
tp1029
sg1015
(I98
I5
tp1030
sg1017
g1018
sba(imove
move
p1031
(dp1032
g1013
(I98
I2
tp1033
sg1015
(I98
I3
tp1034
sg1017
g1018
sba(imove
move
p1035
(dp1036
g1013
(I98
I5
tp1037
sg1015
(I99
I4
tp1038
sg1017
g1018
sba(imove
move
p1039
(dp1040
g1013
(I99
I6
tp1041
sg1015
(I99
I7
tp1042
sg1017
g1018
sba(imove
move
p1043
(dp1044
g1013
(I99
I4
tp1045
sg1015
(I98
I3
tp1046
sg1017
g1018
sba(imove
move
p1047
(dp1048
g1013
(I99
I7
tp1049
sg1015
(I98
I8
tp1050
sg1017
g1018
sba(imove
move
p1051
(dp1052
g1013
(I97
I8
tp1053
sg1015
(I98
I8
tp1054
sg1017
g1018
sba(imove
move
p1055
(dp1056
g1013
(I100
I2
tp1057
sg1015
(I103
I5
tp1058
sg1017
g1018
sba(imove
move
p1059
(dp1060
g1013
(I98
I3
tp1061
sg1015
(I97
I2
tp1062
sg1017
g1018
sba(imove
move
p1063
(dp1064
g1013
(I97
I1
tp1065
sg1015
(I97
I2
tp1066
sg1017
g1018
sba(imove
move
p1067
(dp1068
g1013
(I98
I8
tp1069
sg1015
(I98
I1
tp1070
sg1017
g1018
sba(imove
move
p1071
(dp1072
g1013
(I97
I2
tp1073
sg1015
(I97
I7
tp1074
sg1017
g1018
sba(imove
move
p1075
(dp1076
g1013
(I98
I1
tp1077
sg1015
(I100
I1
tp1078
sg1017
g1018
sba(imove
move
p1079
(dp1080
g1013
(I101
I1
tp1081
sg1015
(I100
I1
tp1082
sg1017
g1018
sba(imove
move
p1083
(dp1084
g1013
(I102
I8
tp1085
sg1015
(I97
I3
tp1086
sg1017
g1018
sba(imove
move
p1087
(dp1088
g1013
(I102
I1
tp1089
sg1015
(I99
I4
tp1090
sg1017
g1018
sba(imove
move
p1091
(dp1092
g1013
(I103
I8
tp1093
sg1015
(I102
I6
tp1094
sg1017
g1018
sba(imove
move
p1095
(dp1096
g1013
(I99
I4
tp1097
sg1015
(I101
I6
tp1098
sg1017
g1018
sba(imove
move
p1099
(dp1100
g1013
(I99
I8
tp1101
sg1015
(I101
I6
tp1102
sg1017
g1018
sba(imove
move
p1103
(dp1104
g1013
(I103
I1
tp1105
sg1015
(I102
I3
tp1106
sg1017
g1018
sba(imove
move
p1107
(dp1108
g1013
(I101
I8
tp1109
sg1015
(I103
I8
tp1110
sg1017
S'castle'
p1111
sba(imove
move
p1112
(dp1113
g1013
(I97
I7
tp1114
sg1015
(I97
I8
tp1115
sg1017
g1018
sba(imove
move
p1116
(dp1117
g1013
(I101
I6
tp1118
sg1015
(I100
I5
tp1119
sg1017
g1018
sba(imove
move
p1120
(dp1121
g1013
(I102
I3
tp1122
sg1015
(I101
I5
tp1123
sg1017
g1018
sba(imove
move
p1124
(dp1125
g1013
(I100
I5
tp1126
sg1015
(I103
I2
tp1127
sg1017
g1018
sba(imove
move
p1128
(dp1129
g1013
(I101
I5
tp1130
sg1015
(I102
I7
tp1131
sg1017
g1018
sba(imove
move
p1132
(dp1133
g1013
(I102
I6
tp1134
sg1015
(I101
I4
tp1135
sg1017
g1018
sba(imove
move
p1136
(dp1137
g1013
(I102
I2
tp1138
sg1015
(I102
I3
tp1139
sg1017
g1018
sba(imove
move
p1140
(dp1141
g1013
(I101
I4
tp1142
sg1015
(I103
I5
tp1143
sg1017
g1018
sba(imove
move
p1144
(dp1145
g1013
(I104
I2
tp1146
sg1015
(I104
I3
tp1147
sg1017
g1018
sba(imove
move
p1148
(dp1149
S'start'
p1150
(I103
I5
tp1151
sS'end'
p1152
(I102
I7
tp1153
sS'type'
p1154
S'normal'
p1155
sba(imove
move
p1156
(dp1157
g1150
(I104
I3
tp1158
sg1152
(I104
I4
tp1159
sg1154
g1155
sba(imove
move
p1160
(dp1161
g1150
(I103
I2
tp1162
sg1152
(I102
I3
tp1163
sg1154
g1155
sba(imove
move
p1164
(dp1165
g1150
(I100
I1
tp1166
sg1152
(I99
I2
tp1167
sg1154
g1155
sba(imove
move
p1168
(dp1169
g1150
(I102
I7
tp1170
sg1152
(I103
I5
tp1171
sg1154
g1155
sba(imove
move
p1172
(dp1173
g1150
(I104
I1
tp1174
sg1152
(I102
I1
tp1175
sg1154
g1155
sba(imove
move
p1176
(dp1177
g1150
(I104
I7
tp1178
sg1152
(I104
I6
tp1179
sg1154
g1155
sba(imove
move
p1180
(dp1181
g1150
(I102
I1
tp1182
sg1152
(I102
I3
tp1183
sg1154
g1155
sba(imove
move
p1184
(dp1185
g1150
(I103
I5
tp1186
sg1152
(I102
I3
tp1187
sg1154
g1155
sba(imove
move
p1188
(dp1189
g1150
(I99
I2
tp1190
sg1152
(I100
I1
tp1191
sg1154
g1155
sba(imove
move
p1192
(dp1193
g1150
(I102
I3
tp1194
sg1152
(I103
I5
tp1195
sg1154
g1155
sba(imove
move
p1196
(dp1197
g1150
(I104
I4
tp1198
sg1152
(I103
I5
tp1199
sg1154
g1155
sba(imove
move
p1200
(dp1201
g1150
(I102
I8
tp1202
sg1152
(I99
I8
tp1203
sg1154
g1155
sba(imove
move
p1204
(dp1205
g1150
(I103
I5
tp1206
sg1152
(I104
I6
tp1207
sg1154
g1155
sba(imove
move
p1208
(dp1209
g1150
(I103
I7
tp1210
sg1152
(I104
I6
tp1211
sg1154
g1155
sba(imove
move
p1212
(dp1213
g1150
(I97
I8
tp1214
sg1152
(I99
I8
tp1215
sg1154
g1155
sba(imove
move
p1216
(dp1217
g1150
(I103
I8
tp1218
sg1152
(I102
I7
tp1219
sg1154
g1155
sba(imove
move
p1220
(dp1221
g1150
(I99
I8
tp1222
sg1152
(I104
I8
tp1223
sg1154
g1155
sba(imove
move
p1224
(dp1225
g1150
(I97
I3
tp1226
sg1152
(I100
I6
tp1227
sg1154
g1155
sba(imove
move
p1228
(dp1229
g1150
(I100
I1
tp1230
sg1152
(I99
I2
tp1231
sg1154
g1155
sba(imove
move
p1232
(dp1233
g1150
(I102
I7
tp1234
sg1152
(I101
I7
tp1235
sg1154
g1155
sba(imove
move
p1236
(dp1237
g1150
(I99
I2
tp1238
sg1152
(I99
I3
tp1239
sg1154
g1155
sba(imove
move
p1240
(dp1241
g1150
(I100
I6
tp1242
sg1152
(I98
I8
tp1243
sg1154
g1155
sba(imove
move
p1244
(dp1245
g1150
(I99
I3
tp1246
sg1152
(I99
I4
tp1247
sg1154
g1155
sba(imove
move
p1248
(dp1249
g1150
(I101
I7
tp1250
sg1152
(I100
I7
tp1251
sg1154
g1155
sba(imove
move
p1252
(dp1253
g1150
(I99
I4
tp1254
sg1152
(I99
I5
tp1255
sg1154
g1155
sba(imove
move
p1256
(dp1257
g1150
(I100
I7
tp1258
sg1152
(I99
I7
tp1259
sg1154
g1155
sba(imove
move
p1260
(dp1261
g1150
(I104
I8
tp1262
sg1152
(I104
I6
tp1263
sg1154
g1155
sba(imove
move
p1264
(dp1265
g1150
(I99
I7
tp1266
sg1152
(I98
I7
tp1267
sg1154
g1155
sba(imove
move
p1268
(dp1269
g1150
(I104
I6
tp1270
sg1152
(I104
I8
tp1271
sg1154
g1155
sba(imove
move
p1272
(dp1273
g1150
(I98
I7
tp1274
sg1152
(I97
I8
tp1275
sg1154
g1155
sba(imove
move
p1276
(dp1277
S'start'
p1278
(I99
I5
tp1279
sS'end'
p1280
(I98
I6
tp1281
sS'type'
p1282
S'normal'
p1283
sba(imove
move
p1284
(dp1285
S'start'
p1286
(I101
I2
tp1287
sS'end'
p1288
(I101
I4
tp1289
sS'type'
p1290
S'normal'
p1291
sba(imove
move
p1292
(dp1293
g1286
(I100
I7
tp1294
sg1288
(I100
I5
tp1295
sg1290
g1291
sba(imove
move
p1296
(dp1297
g1286
(I101
I4
tp1298
sg1288
(I100
I5
tp1299
sg1290
g1291
sba(imove
move
p1300
(dp1301
g1286
(I99
I7
tp1302
sg1288
(I99
I6
tp1303
sg1290
g1291
sba(imove
move
p1304
(dp1305
g1286
(I100
I5
tp1306
sg1288
(I99
I6
tp1307
sg1290
g1291
sba(imove
move
p1308
(dp1309
g1286
(I98
I8
tp1310
sg1288
(I99
I6
tp1311
sg1290
g1291
sba(imove
move
p1312
(dp1313
g1286
(I100
I2
tp1314
sg1288
(I100
I4
tp1315
sg1290
g1291
sba(imove
move
p1316
(dp1317
g1286
(I99
I6
tp1318
sg1288
(I100
I4
tp1319
sg1290
g1291
sba(imove
move
p1320
(dp1321
g1286
(I100
I1
tp1322
sg1288
(I100
I4
tp1323
sg1290
g1291
sba(imove
move
p1324
(dp1325
g1286
(I100
I8
tp1326
sg1288
(I100
I4
tp1327
sg1290
g1291
sba(imove
move
p1328
(dp1329
g1286
(I99
I2
tp1330
sg1288
(I99
I3
tp1331
sg1290
g1291
sba(imove
move
p1332
(dp1333
g1286
(I100
I4
tp1334
sg1288
(I99
I3
tp1335
sg1290
g1291
sba(imove
move
p1336
(dp1337
g1286
(I98
I2
tp1338
sg1288
(I99
I3
tp1339
sg1290
g1291
sba(imove
move
p1340
(dp1341
g1286
(I99
I8
tp1342
sg1288
(I102
I5
tp1343
sg1290
g1291
sba(imove
move
p1344
(dp1345
g1286
(I99
I3
tp1346
sg1288
(I99
I4
tp1347
sg1290
g1291
sba(imove
move
p1348
(dp1349
g1286
(I98
I7
tp1350
sg1288
(I98
I5
tp1351
sg1290
g1291
sba(imove
move
p1352
(dp1353
g1286
(I99
I4
tp1354
sg1288
(I98
I5
tp1355
sg1290
g1291
sba(imove
move
p1356
(dp1357
g1286
(I97
I7
tp1358
sg1288
(I97
I6
tp1359
sg1290
g1291
sba(imove
move
p1360
(dp1361
g1286
(I98
I5
tp1362
sg1288
(I97
I6
tp1363
sg1290
g1291
sba(imove
move
p1364
(dp1365
g1286
(I97
I8
tp1366
sg1288
(I97
I6
tp1367
sg1290
g1291
sba(imove
move
p1368
(dp1369
g1286
(I98
I1
tp1370
sg1288
(I99
I3
tp1371
sg1290
g1291
sba(imove
move
p1372
(dp1373
g1286
(I97
I6
tp1374
sg1288
(I97
I2
tp1375
sg1290
g1291
sba(imove
move
p1376
(dp1377
g1286
(I97
I1
tp1378
sg1288
(I97
I2
tp1379
sg1290
g1291
sba(imove
move
p1380
(dp1381
g1286
(I103
I8
tp1382
sg1288
(I102
I6
tp1383
sg1290
g1291
sba(imove
move
p1384
(dp1385
g1286
(I99
I1
tp1386
sg1288
(I104
I6
tp1387
sg1290
g1291
sba(imove
move
p1388
(dp1389
g1286
(I103
I7
tp1390
sg1288
(I104
I6
tp1391
sg1290
g1291
sba(imove
move
p1392
(dp1393
g1286
(I103
I2
tp1394
sg1288
(I103
I4
tp1395
sg1290
g1291
sba(imove
move
p1396
(dp1397
g1286
(I102
I6
tp1398
sg1288
(I101
I4
tp1399
sg1290
g1291
sba(imove
move
p1400
(dp1401
g1286
(I103
I4
tp1402
sg1288
(I102
I5
tp1403
sg1290
g1291
sba(imove
move
p1404
(dp1405
g1286
(I101
I4
tp1406
sg1288
(I102
I2
tp1407
sg1290
g1291
sba(imove
move
p1408
(dp1409
g1286
(I102
I1
tp1410
sg1288
(I104
I3
tp1411
sg1290
g1291
sba(imove
move
p1412
(dp1413
g1286
(I101
I7
tp1414
sg1288
(I101
I6
tp1415
sg1290
g1291
sba(imove
move
p1416
(dp1417
g1286
(I102
I5
tp1418
sg1288
(I101
I6
tp1419
sg1290
g1291
sba(imove
move
p1420
(dp1421
g1286
(I102
I2
tp1422
sg1288
(I104
I1
tp1423
sg1290
g1291
sba(imove
move
p1424
(dp1425
g1286
(I101
I6
tp1426
sg1288
(I102
I7
tp1427
sg1290
g1291
sba(imove
move
p1428
(dp1429
g1286
(I101
I8
tp1430
sg1288
(I100
I8
tp1431
sg1290
g1291
sba(imove
move
p1432
(dp1433
g1286
(I104
I3
tp1434
sg1288
(I103
I2
tp1435
sg1290
g1291
sba(imove
move
p1436
(dp1437
g1286
(I104
I8
tp1438
sg1288
(I103
I8
tp1439
sg1290
g1291
sba(imove
move
p1440
(dp1441
g1286
(I102
I7
tp1442
sg1288
(I103
I8
tp1443
sg1290
g1291
sba(imove
move
p1444
(dp1445
g1286
(I104
I6
tp1446
sg1288
(I104
I5
tp1447
sg1290
g1291
sba(imove
move
p1448
(dp1449
S'start'
p1450
(I103
I2
tp1451
sS'end'
p1452
(I104
I1
tp1453
sS'type'
p1454
S'normal'
p1455
sba(imove
move
p1456
(dp1457
g1450
(I100
I8
tp1458
sg1452
(I99
I8
tp1459
sg1454
g1455
sba(imove
move
p1460
(dp1461
g1450
(I99
I3
tp1462
sg1452
(I101
I4
tp1463
sg1454
g1455
sba(imove
move
p1464
(dp1465
g1450
(I104
I5
tp1466
sg1452
(I104
I4
tp1467
sg1454
g1455
sba(imove
move
p1468
(dp1469
g1450
(I101
I4
tp1470
sg1452
(I103
I5
tp1471
sg1454
g1455
sba(imove
move
p1472
(dp1473
g1450
(I104
I7
tp1474
sg1452
(I104
I6
tp1475
sg1454
g1455
sba(imove
move
p1476
(dp1477
g1450
(I103
I1
tp1478
sg1452
(I102
I3
tp1479
sg1454
g1455
sba(imove
move
p1480
(dp1481
g1450
(I104
I6
tp1482
sg1452
(I103
I5
tp1483
sg1454
g1455
sba(imove
move
p1484
(dp1485
g1450
(I103
I8
tp1486
sg1452
(I104
I8
tp1487
sg1454
g1455
sba(imove
move
p1488
(dp1489
g1450
(I103
I5
tp1490
sg1452
(I103
I4
tp1491
sg1454
g1455
sba(imove
move
p1492
(dp1493
g1450
(I104
I8
tp1494
sg1452
(I104
I7
tp1495
sg1454
g1455
sba(imove
move
p1496
(dp1497
g1450
(I103
I4
tp1498
sg1452
(I102
I3
tp1499
sg1454
g1455
sba(imove
move
p1500
(dp1501
g1450
(I104
I1
tp1502
sg1452
(I102
I3
tp1503
sg1454
g1455
sba(imove
move
p1504
(dp1505
g1450
(I99
I8
tp1506
sg1452
(I98
I8
tp1507
sg1454
g1455
sba(imove
move
p1508
(dp1509
g1450
(I102
I3
tp1510
sg1452
(I103
I4
tp1511
sg1454
g1455
sba(imove
move
p1512
(dp1513
g1450
(I104
I4
tp1514
sg1452
(I104
I3
tp1515
sg1454
g1455
sba(imove
move
p1516
(dp1517
g1450
(I103
I4
tp1518
sg1452
(I104
I3
tp1519
sg1454
g1455
sba(imove
move
p1520
(dp1521
g1450
(I102
I8
tp1522
sg1452
(I100
I6
tp1523
sg1454
g1455
sba(imove
move
p1524
(dp1525
g1450
(I104
I3
tp1526
sg1452
(I99
I8
tp1527
sg1454
g1455
sba(imove
move
p1528
(dp1529
g1450
(I100
I6
tp1530
sg1452
(I104
I2
tp1531
sg1454
g1455
sba(imove
move
p1532
(dp1533
g1450
(I101
I1
tp1534
sg1452
(I101
I2
tp1535
sg1454
g1455
sba(imove
move
p1536
(dp1537
g1450
(I98
I8
tp1538
sg1452
(I99
I8
tp1539
sg1454
g1455
sba(imove
move
p1540
(dp1541
g1450
(I97
I2
tp1542
sg1452
(I97
I7
tp1543
sg1454
g1455
sba(imove
move
p1544
(dp1545
g1450
(I99
I8
tp1546
sg1452
(I98
I8
tp1547
sg1454
g1455
sba(imove
move
p1548
(dp1549
g1450
(I104
I7
tp1550
sg1452
g67
sg1454
g1455
sba(imove
move
p1551
(dp1552
g1450
(I98
I8
tp1553
sg1452
(I97
I7
tp1554
sg1454
g1455
sba(imove
move
p1555
(dp1556
g1450
(I101
I2
tp1557
sg1452
(I100
I3
tp1558
sg1454
g1455
sba(imove
move
p1559
(dp1560
g1450
(I104
I2
tp1561
sg1452
(I98
I8
tp1562
sg1454
g1455
sba(imove
move
p1563
(dp1564
g1450
(I100
I3
tp1565
sg1452
(I99
I4
tp1566
sg1454
g1455
sba(imove
move
p1567
(dp1568
g1450
(I97
I7
tp1569
sg1452
(I97
I8
tp1570
sg1454
g1455
sba(imove
move
p1571
(dp1572
g1450
(I99
I4
tp1573
sg1452
(I99
I5
tp1574
sg1454
g1455
sba(imove
move
p1575
(dp1576
g1450
(I97
I8
tp1577
sg1452
(I97
I7
tp1578
sg1454
g1455
sba(imove
move
p1579
(dp1580
g1450
(I99
I5
tp1581
sg1452
g132
sg1454
g1455
sba(imove
move
p1582
(dp1583
g1450
(I97
I7
tp1584
sg1452
g418
sg1454
g1455
sbasS'pieces'
p1585
(dp1586
g205
(ipieces
bishop
p1587
(dp1588
S'color'
p1589
g513
sS'iAm'
p1590
g667
sS'pos'
p1591
g205
sbsg418
(ipieces
king
p1592
(dp1593
g1589
g513
sg1590
g516
sg1591
g418
sS'hasMoved'
p1594
I01
sbsg67
(ipieces
rook
p1595
(dp1596
g1589
g524
sg1590
g527
sg1591
g67
sbsg132
(ipieces
king
p1597
(dp1598
g1589
g524
sg1590
g516
sg1591
g132
sg1594
I01
sbssb.